

Microchip Technology PIC18 LITE Macro Assembler V1.35 build -356382666 
                                                                                               Tue Feb 23 18:55:38 2016

Microchip Technology Omniscient Code Generator v1.35 (Free mode) build 201507080246
     1                           	processor	18F4550
     2                           	fnconf	rparam,??,?,0
     3                           	opt	pw 120
     4                           	opt	lm
     5                           	psect	idataBANK0,global,class=CODE,delta=1
     6                           	psect	mediumconst,global,reloc=2,class=MEDIUMCONST,delta=1
     7                           	psect	cinit,global,reloc=2,class=CODE,delta=1
     8                           	psect	bssCOMRAM,global,class=COMRAM,space=1,delta=1
     9                           	psect	bssBANK0,global,class=BANK0,space=1,delta=1
    10                           	psect	dataBANK0,global,class=BANK0,space=1,delta=1
    11                           	psect	cstackBANK0,global,class=BANK0,space=1,delta=1
    12                           	psect	cstackCOMRAM,global,class=COMRAM,space=1,delta=1
    13                           	psect	text0,global,reloc=2,class=CODE,delta=1
    14                           	psect	text1,global,reloc=2,class=CODE,delta=1
    15                           	psect	text2,global,reloc=2,class=CODE,delta=1
    16                           	psect	text3,global,reloc=2,class=CODE,delta=1
    17                           	psect	text4,global,reloc=2,class=CODE,delta=1
    18                           	psect	text5,global,reloc=2,class=CODE,delta=1
    19                           	psect	text6,global,reloc=2,class=CODE,delta=1
    20                           	psect	text7,global,reloc=2,class=CODE,delta=1
    21                           	psect	text8,global,reloc=2,class=CODE,delta=1
    22                           	psect	text9,global,reloc=2,class=CODE,delta=1
    23                           	psect	text10,global,reloc=2,class=CODE,delta=1
    24                           	psect	text11,global,reloc=2,class=CODE,delta=1
    25                           	psect	text12,global,reloc=2,class=CODE,delta=1
    26                           	psect	text13,global,reloc=2,class=CODE,delta=1
    27                           	psect	text14,global,reloc=2,class=CODE,delta=1
    28                           	psect	text15,global,reloc=2,class=CODE,delta=1
    29                           	psect	intcode,global,reloc=2,class=CODE,delta=1
    30                           	psect	intcode_body,global,reloc=2,class=CODE,delta=1
    31                           	psect	text17,global,reloc=2,class=CODE,delta=1
    32                           	psect	text18,global,reloc=2,class=CODE,delta=1
    33                           	psect	text19,global,reloc=2,class=CODE,delta=1
    34                           	psect	text20,global,reloc=2,class=CODE,delta=1
    35                           	psect	text21,global,reloc=2,class=CODE,delta=1
    36                           	psect	text22,global,reloc=2,class=CODE,delta=1
    37                           	psect	text23,global,reloc=2,class=CODE,delta=1
    38                           	psect	text24,global,reloc=2,class=CODE,delta=1
    39                           	psect	text25,global,reloc=2,class=CODE,delta=1
    40                           	psect	text26,global,reloc=2,class=CODE,delta=1
    41                           	psect	text27,global,reloc=2,class=CODE,delta=1
    42                           	psect	text28,global,reloc=2,class=CODE,delta=1
    43                           	psect	text29,global,reloc=2,class=CODE,delta=1
    44                           	psect	text30,global,reloc=2,class=CODE,delta=1
    45                           	psect	text31,global,reloc=2,class=CODE,delta=1
    46                           	psect	text32,global,reloc=2,class=CODE,delta=1
    47                           	psect	text33,global,reloc=2,class=CODE,delta=1
    48                           	psect	text34,global,reloc=2,class=CODE,delta=1
    49                           	psect	text35,global,reloc=2,class=CODE,delta=1
    50                           	psect	text36,global,reloc=2,class=CODE,delta=1
    51                           	psect	text37,global,reloc=2,class=CODE,delta=1
    52                           	psect	text38,global,reloc=2,class=CODE,delta=1
    53                           	psect	text39,global,reloc=2,class=CODE,delta=1
    54                           	psect	text40,global,reloc=2,class=CODE,delta=1
    55                           	psect	text41,global,reloc=2,class=CODE,delta=1
    56                           	psect	text42,global,reloc=2,class=CODE,delta=1
    57                           	psect	text43,global,reloc=2,class=CODE,delta=1
    58                           	psect	text44,global,reloc=2,class=CODE,delta=1
    59                           	psect	text45,global,reloc=2,class=CODE,delta=1
    60                           	psect	text46,global,reloc=2,class=CODE,delta=1
    61                           	psect	text47,global,reloc=2,class=CODE,delta=1
    62                           	psect	text48,global,reloc=2,class=CODE,delta=1
    63                           	psect	text49,global,reloc=2,class=CODE,delta=1
    64                           	psect	text50,global,reloc=2,class=CODE,delta=1
    65                           	psect	text51,global,reloc=2,class=CODE,delta=1
    66                           	psect	text52,global,reloc=2,class=CODE,delta=1
    67                           	psect	text53,global,reloc=2,class=CODE,delta=1
    68                           	psect	text54,global,reloc=2,class=CODE,delta=1
    69                           	psect	text55,global,reloc=2,class=CODE,delta=1
    70                           	psect	text56,global,reloc=2,class=CODE,delta=1
    71                           	psect	text57,global,reloc=2,class=CODE,delta=1
    72                           	psect	intsave_regs,global,class=BIGRAM,space=1,delta=1
    73                           	psect	rparam,global,class=COMRAM,space=1,delta=1
    74                           	psect	temp,global,ovrld,common,class=COMRAM,space=1,delta=1
    75                           	dabs	1,0x400,32,_BDT
    76                           	dabs	1,0x500,3,_mouseReport
    77                           	dabs	1,0x428,8,_CtrlTrfData
    78                           	dabs	1,0x420,8,_SetupPkt
    79  0000                     
    80                           	psect	idataBANK0
    81  001D78                     __pidataBANK0:
    82                           	opt stack 0
    83                           
    84                           ;initializer for _ax
    85  001D78  41                 	db	65
    86  001D79  58                 	db	88
    87  001D7A  3D                 	db	61
    88  001D7B  00                 	db	0
    89                           
    90                           ;initializer for _ay
    91  001D7C  41                 	db	65
    92  001D7D  59                 	db	89
    93  001D7E  3D                 	db	61
    94  001D7F  00                 	db	0
    95                           
    96                           ;initializer for _az
    97  001D80  41                 	db	65
    98  001D81  5A                 	db	90
    99  001D82  3D                 	db	61
   100  001D83  00                 	db	0
   101                           
   102                           ;initializer for _gx
   103  001D84  47                 	db	71
   104  001D85  58                 	db	88
   105  001D86  3D                 	db	61
   106  001D87  00                 	db	0
   107                           
   108                           ;initializer for _gy
   109  001D88  47                 	db	71
   110  001D89  59                 	db	89
   111  001D8A  3D                 	db	61
   112  001D8B  00                 	db	0
   113                           
   114                           ;initializer for _gz
   115  001D8C  47                 	db	71
   116  001D8D  5A                 	db	90
   117  001D8E  3D                 	db	61
   118  001D8F  00                 	db	0
   119                           
   120                           ;initializer for _gforcescale
   121  001D90  01                 	db	1
   122  001D91  80                 	db	128
   123  001D92  38                 	db	56
   124                           
   125                           ;initializer for _sign
   126  001D93  FC7C               	dw	64636
   127                           
   128                           	psect	mediumconst
   129  007EE8                     __pmediumconst:
   130                           	opt stack 0
   131  007EE8  00                 	db	0
   132  007EE9                     _USB_SD_Ptr:
   133                           	opt stack 0
   134  007EE9  FA                 	db	low _sd000
   135  007EEA  7F                 	db	high _sd000
   136  007EEB  F9                 	db	low _sd001
   137  007EEC  7E                 	db	high _sd001
   138  007EED  5F                 	db	low _sd002
   139  007EEE  7F                 	db	high _sd002
   140  007EEF                     __end_of_USB_SD_Ptr:
   141                           	opt stack 0
   142  007EEF  FF                 	db	255
   143  007EF0  00                 	db	0
   144  007EF1  01                 	db	1
   145  007EF2  00                 	db	0
   146  007EF3                     __end_of_xVector:
   147                           	opt stack 0
   148  007EF3  00                 	db	0
   149  007EF4  FF                 	db	255
   150  007EF5  00                 	db	0
   151  007EF6  01                 	db	1
   152  007EF7                     __end_of_yVector:
   153                           	opt stack 0
   154  007EF7                     _USB_CD_Ptr:
   155                           	opt stack 0
   156  007EF7  8D                 	db	low _configDescriptor1
   157  007EF8  7F                 	db	high _configDescriptor1
   158  007EF9                     __end_of_USB_CD_Ptr:
   159                           	opt stack 0
   160  007EF9                     _sd001:
   161                           	opt stack 0
   162  007EF9  34                 	db	52
   163  007EFA  03                 	db	3
   164  007EFB  004D               	dw	77
   165  007EFD  0069               	dw	105
   166  007EFF  0063               	dw	99
   167  007F01  0072               	dw	114
   168  007F03  006F               	dw	111
   169  007F05  0063               	dw	99
   170  007F07  0068               	dw	104
   171  007F09  0069               	dw	105
   172  007F0B  0070               	dw	112
   173  007F0D  0020               	dw	32
   174  007F0F  0054               	dw	84
   175  007F11  0065               	dw	101
   176  007F13  0063               	dw	99
   177  007F15  0068               	dw	104
   178  007F17  006E               	dw	110
   179  007F19  006F               	dw	111
   180  007F1B  006C               	dw	108
   181  007F1D  006F               	dw	111
   182  007F1F  0067               	dw	103
   183  007F21  0079               	dw	121
   184  007F23  0020               	dw	32
   185  007F25  0049               	dw	73
   186  007F27  006E               	dw	110
   187  007F29  0063               	dw	99
   188  007F2B  002E               	dw	46
   189  007F2D                     __end_of_sd001:
   190                           	opt stack 0
   191  007F2D                     _hid_rpt01:
   192                           	opt stack 0
   193  007F2D  05                 	db	5
   194  007F2E  01                 	db	1
   195  007F2F  09                 	db	9
   196  007F30  02                 	db	2
   197  007F31  A1                 	db	161
   198  007F32  01                 	db	1
   199  007F33  09                 	db	9
   200  007F34  01                 	db	1
   201  007F35  A1                 	db	161
   202  007F36  00                 	db	0
   203  007F37  05                 	db	5
   204  007F38  09                 	db	9
   205  007F39  19                 	db	25
   206  007F3A  01                 	db	1
   207  007F3B  29                 	db	41
   208  007F3C  03                 	db	3
   209  007F3D  15                 	db	21
   210  007F3E  00                 	db	0
   211  007F3F  25                 	db	37
   212  007F40  01                 	db	1
   213  007F41  95                 	db	149
   214  007F42  03                 	db	3
   215  007F43  75                 	db	117
   216  007F44  01                 	db	1
   217  007F45  81                 	db	129
   218  007F46  02                 	db	2
   219  007F47  95                 	db	149
   220  007F48  01                 	db	1
   221  007F49  75                 	db	117
   222  007F4A  05                 	db	5
   223  007F4B  81                 	db	129
   224  007F4C  01                 	db	1
   225  007F4D  05                 	db	5
   226  007F4E  01                 	db	1
   227  007F4F  09                 	db	9
   228  007F50  30                 	db	48
   229  007F51  09                 	db	9
   230  007F52  31                 	db	49
   231  007F53  15                 	db	21
   232  007F54  81                 	db	129
   233  007F55  25                 	db	37
   234  007F56  7F                 	db	127
   235  007F57  75                 	db	117
   236  007F58  08                 	db	8
   237  007F59  95                 	db	149
   238  007F5A  02                 	db	2
   239  007F5B  81                 	db	129
   240  007F5C  06                 	db	6
   241  007F5D  C0                 	db	192
   242  007F5E  C0                 	db	192
   243  007F5F                     __end_of_hid_rpt01:
   244                           	opt stack 0
   245  007F5F                     _sd002:
   246                           	opt stack 0
   247  007F5F  2E                 	db	46
   248  007F60  03                 	db	3
   249  007F61  004D               	dw	77
   250  007F63  006F               	dw	111
   251  007F65  0075               	dw	117
   252  007F67  0073               	dw	115
   253  007F69  0065               	dw	101
   254  007F6B  0020               	dw	32
   255  007F6D  0049               	dw	73
   256  007F6F  006E               	dw	110
   257  007F71  0020               	dw	32
   258  007F73  0061               	dw	97
   259  007F75  0020               	dw	32
   260  007F77  0053               	dw	83
   261  007F79  0071               	dw	113
   262  007F7B  0075               	dw	117
   263  007F7D  0061               	dw	97
   264  007F7F  0072               	dw	114
   265  007F81  0065               	dw	101
   266  007F83  0020               	dw	32
   267  007F85  0044               	dw	68
   268  007F87  0065               	dw	101
   269  007F89  006D               	dw	109
   270  007F8B  006F               	dw	111
   271  007F8D                     __end_of_sd002:
   272                           	opt stack 0
   273  007F8D                     _configDescriptor1:
   274                           	opt stack 0
   275  007F8D  09                 	db	9
   276  007F8E  02                 	db	2
   277  007F8F  22                 	db	34
   278  007F90  00                 	db	0
   279  007F91  01                 	db	1
   280  007F92  01                 	db	1
   281  007F93  00                 	db	0
   282  007F94  C0                 	db	192
   283  007F95  32                 	db	50
   284  007F96  09                 	db	9
   285  007F97  04                 	db	4
   286  007F98  00                 	db	0
   287  007F99  00                 	db	0
   288  007F9A  01                 	db	1
   289  007F9B  03                 	db	3
   290  007F9C  01                 	db	1
   291  007F9D  02                 	db	2
   292  007F9E  00                 	db	0
   293  007F9F  09                 	db	9
   294  007FA0  21                 	db	33
   295  007FA1  11                 	db	17
   296  007FA2  01                 	db	1
   297  007FA3  00                 	db	0
   298  007FA4  01                 	db	1
   299  007FA5  22                 	db	34
   300  007FA6  32                 	db	50
   301  007FA7  00                 	db	0
   302  007FA8  07                 	db	7
   303  007FA9  05                 	db	5
   304  007FAA  81                 	db	129
   305  007FAB  03                 	db	3
   306  007FAC  03                 	db	3
   307  007FAD  00                 	db	0
   308  007FAE  01                 	db	1
   309  007FAF                     __end_of_configDescriptor1:
   310                           	opt stack 0
   311  007FAF  00                 	db	0
   312  007FB0  80                 	db	128
   313  007FB1  3F                 	db	63
   314  007FB2  72                 	db	114
   315  007FB3  31                 	db	49
   316  007FB4  3F                 	db	63
   317  007FB5  FE                 	db	254
   318  007FB6  75                 	db	117
   319  007FB7  3E                 	db	62
   320  007FB8  58                 	db	88
   321  007FB9  63                 	db	99
   322  007FBA  3D                 	db	61
   323  007FBB  95                 	db	149
   324  007FBC  1D                 	db	29
   325  007FBD  3C                 	db	60
   326  007FBE  C5                 	db	197
   327  007FBF  AE                 	db	174
   328  007FC0  3A                 	db	58
   329  007FC1  79                 	db	121
   330  007FC2  21                 	db	33
   331  007FC3  39                 	db	57
   332  007FC4  94                 	db	148
   333  007FC5  80                 	db	128
   334  007FC6  37                 	db	55
   335  007FC7  93                 	db	147
   336  007FC8  A7                 	db	167
   337  007FC9  35                 	db	53
   338  007FCA  56                 	db	86
   339  007FCB  15                 	db	21
   340  007FCC  34                 	db	52
   341  007FCD                     __end_ofexp@coeff:
   342                           	opt stack 0
   343  007FCD  00                 	db	0
   344  007FCE  00                 	db	0
   345  007FCF  00                 	db	0
   346  007FD0  00                 	db	0
   347  007FD1  80                 	db	128
   348  007FD2  3F                 	db	63
   349  007FD3  F0                 	db	240
   350  007FD4  FF                 	db	255
   351  007FD5  BE                 	db	190
   352  007FD6  E2                 	db	226
   353  007FD7  A9                 	db	169
   354  007FD8  3E                 	db	62
   355  007FD9  83                 	db	131
   356  007FDA  76                 	db	118
   357  007FDB  BE                 	db	190
   358  007FDC  AE                 	db	174
   359  007FDD  2B                 	db	43
   360  007FDE  3E                 	db	62
   361  007FDF  3C                 	db	60
   362  007FE0  C3                 	db	195
   363  007FE1  BD                 	db	189
   364  007FE2  D2                 	db	210
   365  007FE3  13                 	db	19
   366  007FE4  3D                 	db	61
   367  007FE5  78                 	db	120
   368  007FE6  D3                 	db	211
   369  007FE7  BB                 	db	187
   370  007FE8                     __end_oflog@coeff:
   371                           	opt stack 0
   372  007FE8                     _device_dsc:
   373                           	opt stack 0
   374  007FE8  12                 	db	18
   375  007FE9  01                 	db	1
   376  007FEA  0200               	dw	512
   377  007FEC  00                 	db	0
   378  007FED  00                 	db	0
   379  007FEE  00                 	db	0
   380  007FEF  08                 	db	8
   381  007FF0  04D8               	dw	1240
   382  007FF2  0000               	dw	0
   383  007FF4  0003               	dw	3
   384  007FF6  01                 	db	1
   385  007FF7  02                 	db	2
   386  007FF8  00                 	db	0
   387  007FF9  01                 	db	1
   388  007FFA                     __end_of_device_dsc:
   389                           	opt stack 0
   390  007FFA                     _sd000:
   391                           	opt stack 0
   392  007FFA  04                 	db	4
   393  007FFB  03                 	db	3
   394  007FFC  0409               	dw	1033
   395  007FFE                     __end_of_sd000:
   396                           	opt stack 0
   397  0000                     _ADCON0	set	4034
   398  0000                     _ADCON0bits	set	4034
   399  0000                     _ADCON1bits	set	4033
   400  0000                     _ADCON2	set	4032
   401  0000                     _ADCON2bits	set	4032
   402  0000                     _ADRESH	set	4036
   403  0000                     _ADRESL	set	4035
   404  0000                     _INTCONbits	set	4082
   405  0000                     _IPR2bits	set	4002
   406  0000                     _LATD	set	3980
   407  0000                     _LATDbits	set	3980
   408  0000                     _PIE2bits	set	4000
   409  0000                     _PIR1bits	set	3998
   410  0000                     _PIR2bits	set	4001
   411  0000                     _PORTBbits	set	3969
   412  0000                     _RCONbits	set	4048
   413  0000                     _SSPADD	set	4040
   414  0000                     _SSPBUF	set	4041
   415  0000                     _SSPCON1	set	4038
   416  0000                     _SSPCON1bits	set	4038
   417  0000                     _SSPCON2	set	4037
   418  0000                     _SSPCON2bits	set	4037
   419  0000                     _SSPSTAT	set	4039
   420  0000                     _SSPSTATbits	set	4039
   421  0000                     _TRISAbits	set	3986
   422  0000                     _TRISBbits	set	3987
   423  0000                     _TRISD	set	3989
   424  0000                     _TRISDbits	set	3989
   425  0000                     _UADDR	set	3950
   426  0000                     _UCFG	set	3951
   427  0000                     _UCON	set	3949
   428  0000                     _UCONbits	set	3949
   429  0000                     _UEIE	set	3947
   430  0000                     _UEIR	set	3946
   431  0000                     _UEP0bits	set	3952
   432  0000                     _UIE	set	3945
   433  0000                     _UIEbits	set	3945
   434  0000                     _UIR	set	3944
   435  0000                     _UIRbits	set	3944
   436  0000                     _USTAT	set	3948
   437  0000                     _UEP0	set	3952
   438  0000                     _UEP1	set	3953
   439                           
   440                           ; #config settings
   441  007FFE  00                 	db	0	; dummy byte at the end
   442  0000                     
   443                           	psect	cinit
   444  0018E8                     __pcinit:
   445                           	opt stack 0
   446  0018E8                     start_initialization:
   447                           	opt stack 0
   448  0018E8                     __initialization:
   449                           	opt stack 0
   450                           
   451                           ; Clear objects allocated to BANK0 (61 bytes)
   452  0018E8  EE00  F060         	lfsr	0,__pbssBANK0
   453  0018EC  0E3D               	movlw	61
   454  0018EE                     clear_0:
   455  0018EE  6AEE               	clrf	postinc0,c
   456  0018F0  06E8               	decf	wreg,f,c
   457  0018F2  E1FD               	bnz	clear_0
   458                           
   459                           ; Clear objects allocated to COMRAM (43 bytes)
   460  0018F4  EE00  F033         	lfsr	0,__pbssCOMRAM
   461  0018F8  0E2B               	movlw	43
   462  0018FA                     clear_1:
   463  0018FA  6AEE               	clrf	postinc0,c
   464  0018FC  06E8               	decf	wreg,f,c
   465  0018FE  E1FD               	bnz	clear_1
   466                           
   467                           ; Initialize objects allocated to BANK0 (29 bytes)
   468                           ; load TBLPTR registers with __pidataBANK0
   469  001900  0E78               	movlw	low __pidataBANK0
   470  001902  6EF6               	movwf	tblptrl,c
   471  001904  0E1D               	movlw	high __pidataBANK0
   472  001906  6EF7               	movwf	tblptrh,c
   473  001908  0E00               	movlw	low (__pidataBANK0 shr (0+16))
   474  00190A  6EF8               	movwf	tblptru,c
   475  00190C  EE00  F09D         	lfsr	0,__pdataBANK0
   476  001910  EE10 F01D          	lfsr	1,29
   477  001914                     copy_data0:
   478  001914  0009               	tblrd		*+
   479  001916  CFF5 FFEE          	movff	tablat,postinc0
   480  00191A  50E5               	movf	postdec1,w,c
   481  00191C  50E1               	movf	fsr1l,w,c
   482  00191E  E1FA               	bnz	copy_data0
   483  001920                     end_of_initialization:
   484                           	opt stack 0
   485  001920                     __end_of__initialization:
   486                           	opt stack 0
   487  001920  905E               	bcf	int$flags,0,c	;clear compiler interrupt flag (level 1)
   488  001922  925E               	bcf	int$flags,1,c	;clear compiler interrupt flag (level 2)
   489  001924  0E00               	movlw	low (__Lmediumconst shr (0+16))
   490  001926  6EF8               	movwf	tblptru,c
   491  001928  0100               	movlb	0
   492  00192A  EF4D  F00C         	goto	_main	;jump to C main() function
   493                           tblptru	equ	0xFF8
   494                           tblptrh	equ	0xFF7
   495                           tblptrl	equ	0xFF6
   496                           tablat	equ	0xFF5
   497                           postinc0	equ	0xFEE
   498                           wreg	equ	0xFE8
   499                           postdec1	equ	0xFE5
   500                           fsr1l	equ	0xFE1
   501                           
   502                           	psect	bssCOMRAM
   503  000033                     __pbssCOMRAM:
   504                           	opt stack 0
   505  000033                     _USB1msTickCount:
   506                           	opt stack 0
   507  000033                     	ds	4
   508  000037                     APP_LEDUpdateUSBStatus@ledCount:
   509                           	opt stack 0
   510  000037                     	ds	2
   511  000039                     _acx:
   512                           	opt stack 0
   513  000039                     	ds	2
   514  00003B                     _acy:
   515                           	opt stack 0
   516  00003B                     	ds	2
   517  00003D                     _acz:
   518                           	opt stack 0
   519  00003D                     	ds	2
   520  00003F                     _oldacx:
   521                           	opt stack 0
   522  00003F                     	ds	2
   523  000041                     _oldacy:
   524                           	opt stack 0
   525  000041                     	ds	2
   526  000043                     _oldacz:
   527                           	opt stack 0
   528  000043                     	ds	2
   529  000045                     _pBDTEntryEP0OutCurrent:
   530                           	opt stack 0
   531  000045                     	ds	2
   532  000047                     _pBDTEntryEP0OutNext:
   533                           	opt stack 0
   534  000047                     	ds	2
   535  000049                     _pDst:
   536                           	opt stack 0
   537  000049                     	ds	2
   538  00004B                     _BothEP0OutUOWNsSet:
   539                           	opt stack 0
   540  00004B                     	ds	1
   541  00004C                     _RemoteWakeup:
   542                           	opt stack 0
   543  00004C                     	ds	1
   544  00004D                     _USBBusIsSuspended:
   545                           	opt stack 0
   546  00004D                     	ds	1
   547  00004E                     _USBDeferINDataStagePackets:
   548                           	opt stack 0
   549  00004E                     	ds	1
   550  00004F                     _USBDeferOUTDataStagePackets:
   551                           	opt stack 0
   552  00004F                     	ds	1
   553  000050                     _USBDeferStatusStagePacket:
   554                           	opt stack 0
   555  000050                     	ds	1
   556  000051                     _USBDeviceState:
   557                           	opt stack 0
   558  000051                     	ds	1
   559  000052                     _USBStatusStageEnabledFlag1:
   560                           	opt stack 0
   561  000052                     	ds	1
   562  000053                     _USBStatusStageEnabledFlag2:
   563                           	opt stack 0
   564  000053                     	ds	1
   565  000054                     _USBStatusStageTimeoutCounter:
   566                           	opt stack 0
   567  000054                     	ds	1
   568  000055                     _USBTicksSinceSuspendEnd:
   569                           	opt stack 0
   570  000055                     	ds	1
   571  000056                     _controlTransferState:
   572                           	opt stack 0
   573  000056                     	ds	1
   574  000057                     _endpoint_number:
   575                           	opt stack 0
   576  000057                     	ds	1
   577  000058                     _shortPacketStatus:
   578                           	opt stack 0
   579  000058                     	ds	1
   580  000059                     _USBActiveConfiguration:
   581                           	opt stack 0
   582  000059                     	ds	1
   583  00005A                     _USBAlternateInterface:
   584                           	opt stack 0
   585  00005A                     	ds	1
   586  00005B                     _USTATcopy:
   587                           	opt stack 0
   588  00005B                     	ds	1
   589  00005C                     _active_protocol:
   590                           	opt stack 0
   591  00005C                     	ds	1
   592  00005D                     _idle_rate:
   593                           	opt stack 0
   594  00005D                     	ds	1
   595                           tblptru	equ	0xFF8
   596                           tblptrh	equ	0xFF7
   597                           tblptrl	equ	0xFF6
   598                           tablat	equ	0xFF5
   599                           postinc0	equ	0xFEE
   600                           wreg	equ	0xFE8
   601                           postdec1	equ	0xFE5
   602                           fsr1l	equ	0xFE1
   603                           
   604                           	psect	bssBANK0
   605  000060                     __pbssBANK0:
   606                           	opt stack 0
   607  000060                     _mouse:
   608                           	opt stack 0
   609  000060                     	ds	10
   610  00006A                     _outPipes:
   611                           	opt stack 0
   612  00006A                     	ds	8
   613  000072                     _inPipes:
   614                           	opt stack 0
   615  000072                     	ds	6
   616  000078                     _pBDTEntryIn:
   617                           	opt stack 0
   618  000078                     	ds	4
   619  00007C                     _pBDTEntryOut:
   620                           	opt stack 0
   621  00007C                     	ds	4
   622  000080                     _gforcex:
   623                           	opt stack 0
   624  000080                     	ds	3
   625  000083                     _gforcey:
   626                           	opt stack 0
   627  000083                     	ds	3
   628  000086                     _gforcez:
   629                           	opt stack 0
   630  000086                     	ds	3
   631  000089                     _accx:
   632                           	opt stack 0
   633  000089                     	ds	2
   634  00008B                     _accy:
   635                           	opt stack 0
   636  00008B                     	ds	2
   637  00008D                     _accz:
   638                           	opt stack 0
   639  00008D                     	ds	2
   640  00008F                     _ep_data_in:
   641                           	opt stack 0
   642  00008F                     	ds	2
   643  000091                     _ep_data_out:
   644                           	opt stack 0
   645  000091                     	ds	2
   646  000093                     _errno:
   647                           	opt stack 0
   648  000093                     	ds	2
   649  000095                     _gyrox:
   650                           	opt stack 0
   651  000095                     	ds	2
   652  000097                     _gyroy:
   653                           	opt stack 0
   654  000097                     	ds	2
   655  000099                     _gyroz:
   656                           	opt stack 0
   657  000099                     	ds	2
   658  00009B                     _x:
   659                           	opt stack 0
   660  00009B                     	ds	2
   661                           tblptru	equ	0xFF8
   662                           tblptrh	equ	0xFF7
   663                           tblptrl	equ	0xFF6
   664                           tablat	equ	0xFF5
   665                           postinc0	equ	0xFEE
   666                           wreg	equ	0xFE8
   667                           postdec1	equ	0xFE5
   668                           fsr1l	equ	0xFE1
   669                           
   670                           	psect	dataBANK0
   671  00009D                     __pdataBANK0:
   672                           	opt stack 0
   673  00009D                     _ax:
   674                           	opt stack 0
   675  00009D                     	ds	4
   676  0000A1                     _ay:
   677                           	opt stack 0
   678  0000A1                     	ds	4
   679  0000A5                     _az:
   680                           	opt stack 0
   681  0000A5                     	ds	4
   682  0000A9                     _gx:
   683                           	opt stack 0
   684  0000A9                     	ds	4
   685  0000AD                     _gy:
   686                           	opt stack 0
   687  0000AD                     	ds	4
   688  0000B1                     _gz:
   689                           	opt stack 0
   690  0000B1                     	ds	4
   691  0000B5                     _gforcescale:
   692                           	opt stack 0
   693  0000B5                     	ds	3
   694  0000B8                     _sign:
   695                           	opt stack 0
   696  0000B8                     	ds	2
   697                           tblptru	equ	0xFF8
   698                           tblptrh	equ	0xFF7
   699                           tblptrl	equ	0xFF6
   700                           tablat	equ	0xFF5
   701                           postinc0	equ	0xFEE
   702                           wreg	equ	0xFE8
   703                           postdec1	equ	0xFE5
   704                           fsr1l	equ	0xFE1
   705                           
   706                           	psect	cstackBANK0
   707  0000BA                     __pcstackBANK0:
   708                           	opt stack 0
   709  0000BA                     memset@p:
   710                           	opt stack 0
   711                           
   712                           ; 2 bytes @ 0x0
   713  0000BA                     	ds	2
   714  0000BC                     USBDeviceInit@i:
   715                           	opt stack 0
   716                           
   717                           ; 1 bytes @ 0x2
   718  0000BC                     	ds	1
   719  0000BD                     main@i:
   720                           	opt stack 0
   721                           
   722                           ; 2 bytes @ 0x3
   723  0000BD                     	ds	2
   724                           tblptru	equ	0xFF8
   725                           tblptrh	equ	0xFF7
   726                           tblptrl	equ	0xFF6
   727                           tablat	equ	0xFF5
   728                           postinc0	equ	0xFEE
   729                           wreg	equ	0xFE8
   730                           postdec1	equ	0xFE5
   731                           fsr1l	equ	0xFE1
   732                           
   733                           	psect	cstackCOMRAM
   734  000001                     __pcstackCOMRAM:
   735                           	opt stack 0
   736  000001                     ??_USBStdGetDscHandler:
   737  000001                     ??_USBStdGetStatusHandler:
   738  000001                     ??i2_IdleI2C:
   739  000001                     ?_USBTransferOnePacket:
   740                           	opt stack 0
   741  000001                     APP_DeviceMouseIdleRateCallback@idleRate:
   742                           	opt stack 0
   743  000001                     LED_On@led:
   744                           	opt stack 0
   745  000001                     LED_Off@led:
   746                           	opt stack 0
   747  000001                     USBTransferOnePacket@dir:
   748                           	opt stack 0
   749  000001                     USBConfigureEndpoint@direction:
   750                           	opt stack 0
   751  000001                     USBCtrlTrfTxService@byteToSend:
   752                           	opt stack 0
   753  000001                     USBCtrlTrfRxService@i:
   754                           	opt stack 0
   755  000001                     i2BUTTON_Enable@button:
   756                           	opt stack 0
   757  000001                     i2LED_Enable@led:
   758                           	opt stack 0
   759  000001                     memcpy@d1:
   760                           	opt stack 0
   761  000001                     i2memset@p1:
   762                           	opt stack 0
   763                           
   764                           ; 2 bytes @ 0x0
   765  000001                     	ds	1
   766  000002                     ??_USBConfigureEndpoint:
   767  000002                     ??_APP_DeviceMouseIdleRateCallback:
   768  000002                     USBCtrlTrfRxService@byteToRead:
   769                           	opt stack 0
   770  000002                     USBCtrlTrfInHandler@lastDTS:
   771                           	opt stack 0
   772  000002                     i2WriteI2C@data_out:
   773                           	opt stack 0
   774  000002                     i2SYSTEM_Initialize@state:
   775                           	opt stack 0
   776  000002                     USBTransferOnePacket@data:
   777                           	opt stack 0
   778  000002                     USBStdGetStatusHandler@p:
   779                           	opt stack 0
   780                           
   781                           ; 2 bytes @ 0x1
   782  000002                     	ds	1
   783  000003                     ?_MPU6050_ReadAccX:
   784                           	opt stack 0
   785  000003                     ?_MPU6050_ReadAccY:
   786                           	opt stack 0
   787  000003                     memcpy@s1:
   788                           	opt stack 0
   789  000003                     i2memset@c:
   790                           	opt stack 0
   791                           
   792                           ; 2 bytes @ 0x2
   793  000003                     	ds	1
   794  000004                     APP_DeviceMouseIdleRateCallback@reportId:
   795                           	opt stack 0
   796  000004                     USBTransferOnePacket@len:
   797                           	opt stack 0
   798                           
   799                           ; 1 bytes @ 0x3
   800  000004                     	ds	1
   801  000005                     ??_MPU6050_ReadAccX:
   802  000005                     ??_MPU6050_ReadAccY:
   803  000005                     USBTransferOnePacket@ep:
   804                           	opt stack 0
   805  000005                     memcpy@n:
   806                           	opt stack 0
   807  000005                     i2memset@n:
   808                           	opt stack 0
   809                           
   810                           ; 2 bytes @ 0x4
   811  000005                     	ds	1
   812  000006                     USBConfigureEndpoint@EPNum:
   813                           	opt stack 0
   814  000006                     USBTransferOnePacket@handle:
   815                           	opt stack 0
   816                           
   817                           ; 2 bytes @ 0x5
   818  000006                     	ds	1
   819  000007                     MPU6050_ReadAccX@write:
   820                           	opt stack 0
   821  000007                     MPU6050_ReadAccY@write:
   822                           	opt stack 0
   823  000007                     USBConfigureEndpoint@handle:
   824                           	opt stack 0
   825  000007                     memcpy@d:
   826                           	opt stack 0
   827  000007                     i2memset@p:
   828                           	opt stack 0
   829                           
   830                           ; 2 bytes @ 0x6
   831  000007                     	ds	2
   832  000009                     USBEnableEndpoint@options:
   833                           	opt stack 0
   834  000009                     i2USBDeviceInit@i:
   835                           	opt stack 0
   836  000009                     MPU6050_ReadAccX@accx:
   837                           	opt stack 0
   838  000009                     MPU6050_ReadAccY@accy:
   839                           	opt stack 0
   840  000009                     memcpy@s:
   841                           	opt stack 0
   842                           
   843                           ; 2 bytes @ 0x8
   844  000009                     	ds	1
   845  00000A                     USBEnableEndpoint@p:
   846                           	opt stack 0
   847                           
   848                           ; 2 bytes @ 0x9
   849  00000A                     	ds	1
   850  00000B                     MPU6050_ReadAccX@accxh:
   851                           	opt stack 0
   852  00000B                     MPU6050_ReadAccY@accyh:
   853                           	opt stack 0
   854                           
   855                           ; 2 bytes @ 0xA
   856  00000B                     	ds	1
   857  00000C                     USBEnableEndpoint@ep:
   858                           	opt stack 0
   859                           
   860                           ; 1 bytes @ 0xB
   861  00000C                     	ds	1
   862  00000D                     MPU6050_ReadAccX@accxl:
   863                           	opt stack 0
   864  00000D                     MPU6050_ReadAccY@accyl:
   865                           	opt stack 0
   866                           
   867                           ; 2 bytes @ 0xC
   868  00000D                     	ds	2
   869  00000F                     USER_USB_CALLBACK_EVENT_HANDLER@event:
   870                           	opt stack 0
   871                           
   872                           ; 2 bytes @ 0xE
   873  00000F                     	ds	2
   874  000011                     USER_USB_CALLBACK_EVENT_HANDLER@pdata:
   875                           	opt stack 0
   876                           
   877                           ; 2 bytes @ 0x10
   878  000011                     	ds	2
   879  000013                     USER_USB_CALLBACK_EVENT_HANDLER@size:
   880                           	opt stack 0
   881                           
   882                           ; 2 bytes @ 0x12
   883  000013                     	ds	2
   884  000015                     ??_USER_USB_CALLBACK_EVENT_HANDLER:
   885                           
   886                           ; 0 bytes @ 0x14
   887  000015                     	ds	2
   888  000017                     ??_USBStdFeatureReqHandler:
   889  000017                     USBStdSetCfgHandler@i:
   890                           	opt stack 0
   891                           
   892                           ; 1 bytes @ 0x16
   893  000017                     	ds	1
   894  000018                     USBStdFeatureReqHandler@pUEP:
   895                           	opt stack 0
   896                           
   897                           ; 2 bytes @ 0x17
   898  000018                     	ds	2
   899  00001A                     USBStdFeatureReqHandler@current_ep_data:
   900                           	opt stack 0
   901                           
   902                           ; 1 bytes @ 0x19
   903  00001A                     	ds	1
   904  00001B                     USBStdFeatureReqHandler@p:
   905                           	opt stack 0
   906                           
   907                           ; 2 bytes @ 0x1A
   908  00001B                     	ds	2
   909  00001D                     ??_USBCtrlEPService:
   910  00001D                     
   911                           ; 0 bytes @ 0x1C
   912  00001D                     	ds	1
   913  00001E                     USBDeviceTasks@i:
   914                           	opt stack 0
   915                           
   916                           ; 1 bytes @ 0x1D
   917  00001E                     	ds	1
   918  00001F                     ??_SYS_InterruptHigh:
   919                           
   920                           ; 0 bytes @ 0x1E
   921  00001F                     	ds	14
   922  00002D                     ??_LCDnibble:
   923  00002D                     ??_IdleI2C:
   924  00002D                     OpenI2C@slew:
   925                           	opt stack 0
   926  00002D                     BUTTON_IsPressed@button:
   927                           	opt stack 0
   928  00002D                     BUTTON_Enable@button:
   929                           	opt stack 0
   930  00002D                     LED_Enable@led:
   931                           	opt stack 0
   932  00002D                     memset@p1:
   933                           	opt stack 0
   934                           
   935                           ; 2 bytes @ 0x2C
   936  00002D                     	ds	1
   937  00002E                     OpenI2C@sync_mode:
   938                           	opt stack 0
   939  00002E                     WriteI2C@data_out:
   940                           	opt stack 0
   941  00002E                     SYSTEM_Initialize@state:
   942                           	opt stack 0
   943  00002E                     APP_DeviceMouseTasks@currentButtonState:
   944                           	opt stack 0
   945  00002E                     LCDnibble@nibble:
   946                           	opt stack 0
   947                           
   948                           ; 1 bytes @ 0x2D
   949  00002E                     	ds	1
   950  00002F                     LCDcmd@byte:
   951                           	opt stack 0
   952  00002F                     memset@c:
   953                           	opt stack 0
   954                           
   955                           ; 2 bytes @ 0x2E
   956  00002F                     	ds	1
   957  000030                     ??_LCDinit:
   958                           
   959                           ; 0 bytes @ 0x2F
   960  000030                     	ds	1
   961  000031                     memset@n:
   962                           	opt stack 0
   963                           
   964                           ; 2 bytes @ 0x30
   965  000031                     	ds	2
   966  000033                     tblptru	equ	0xFF8
   967                           tblptrh	equ	0xFF7
   968                           tblptrl	equ	0xFF6
   969                           tablat	equ	0xFF5
   970                           postinc0	equ	0xFEE
   971                           wreg	equ	0xFE8
   972                           postdec1	equ	0xFE5
   973                           fsr1l	equ	0xFE1
   974                           
   975                           ; 0 bytes @ 0x32
   976 ;;
   977 ;;Main: autosize = 0, tempsize = 0, incstack = 0, save=0
   978 ;;
   979 ;; *************** function _main *****************
   980 ;; Defined at:
   981 ;;		line 84 in file "../src/main.c"
   982 ;; Parameters:    Size  Location     Type
   983 ;;		None
   984 ;; Auto vars:     Size  Location     Type
   985 ;;  i               2    3[BANK0 ] int 
   986 ;; Return value:  Size  Location     Type
   987 ;;		None               void
   988 ;; Registers used:
   989 ;;		wreg, fsr2l, fsr2h, status,2, status,0, prodl, prodh, cstack
   990 ;; Tracked objects:
   991 ;;		On entry : 0/0
   992 ;;		On exit  : 0/0
   993 ;;		Unchanged: 0/0
   994 ;; Data sizes:     COMRAM   BANK0   BANK1   BANK2   BANK3   BANK4   BANK5   BANK6   BANK7
   995 ;;      Params:         0       0       0       0       0       0       0       0       0
   996 ;;      Locals:         0       2       0       0       0       0       0       0       0
   997 ;;      Temps:          0       0       0       0       0       0       0       0       0
   998 ;;      Totals:         0       2       0       0       0       0       0       0       0
   999 ;;Total ram usage:        2 bytes
  1000 ;; Hardware stack levels required when called:   14
  1001 ;; This function calls:
  1002 ;;		_APP_DeviceMouseTasks
  1003 ;;		_LCDcmd
  1004 ;;		_LCDinit
  1005 ;;		_MPU6050_Init
  1006 ;;		_OpenI2C
  1007 ;;		_SYSTEM_Initialize
  1008 ;;		_USBDeviceAttach
  1009 ;;		_USBDeviceInit
  1010 ;; This function is called by:
  1011 ;;		Startup code after reset
  1012 ;; This function uses a non-reentrant model
  1013 ;;
  1014                           
  1015                           	psect	text0
  1016  00189A                     __ptext0:
  1017                           	opt stack 0
  1018  00189A                     _main:
  1019                           	opt stack 17
  1020                           
  1021                           ;main.c: 86: SYSTEM_Initialize(SYSTEM_STATE_USB_START);
  1022                           
  1023                           ; BSR set to: 0
  1024                           ;incstack = 0
  1025  00189A  0E00               	movlw	0
  1026  00189C  EC58  F00E         	call	_SYSTEM_Initialize
  1027                           
  1028                           ;main.c: 89: LCDinit();
  1029  0018A0  EC4F  F00B         	call	_LCDinit	;wreg free
  1030                           
  1031                           ;main.c: 90: LCDcmd(0x01);
  1032  0018A4  0E01               	movlw	1
  1033  0018A6  ECD9  F00E         	call	_LCDcmd
  1034                           
  1035                           ;main.c: 91: LCDcmd(0x02);
  1036  0018AA  0E02               	movlw	2
  1037  0018AC  ECD9  F00E         	call	_LCDcmd
  1038                           
  1039                           ;main.c: 92: OpenI2C(0b00001000, 0b00000000);
  1040  0018B0  0E00               	movlw	0
  1041  0018B2  6E2D               	movwf	OpenI2C@slew,c
  1042  0018B4  0E08               	movlw	8
  1043  0018B6  EC9E  F00E         	call	_OpenI2C
  1044                           
  1045                           ;main.c: 93: SSPADD = 29;
  1046  0018BA  0E1D               	movlw	29
  1047  0018BC  6EC8               	movwf	4040,c	;volatile
  1048                           
  1049                           ;main.c: 94: MPU6050_Init();
  1050  0018BE  EC16  F00B         	call	_MPU6050_Init	;wreg free
  1051                           
  1052                           ;main.c: 99: USBDeviceInit();
  1053  0018C2  EC4F  F001         	call	_USBDeviceInit	;wreg free
  1054                           
  1055                           ;main.c: 100: USBDeviceAttach();
  1056  0018C6  ECD0  F00D         	call	_USBDeviceAttach	;wreg free
  1057                           
  1058                           ;main.c: 101: int i = 0;
  1059  0018CA  0E00               	movlw	0
  1060  0018CC  0100               	movlb	0	; () banked
  1061  0018CE  6FBE               	movwf	(main@i+1)& (0+255),b
  1062  0018D0  0E00               	movlw	0
  1063  0018D2  6FBD               	movwf	main@i& (0+255),b
  1064                           
  1065                           ; BSR set to: 0
  1066                           ;main.c: 103: TRISBbits.RB2 = 1;
  1067  0018D4  8493               	bsf	3987,2,c	;volatile
  1068  0018D6                     l5099:
  1069                           
  1070                           ;main.c: 105: {
  1071                           ;main.c: 106: ;
  1072                           ;main.c: 127: if( USBDeviceState < CONFIGURED_STATE )
  1073  0018D6  0E20               	movlw	32
  1074  0018D8  6051               	cpfslt	_USBDeviceState,c	;volatile
  1075  0018DA  D001               	goto	l416
  1076  0018DC  D7FC               	goto	l5099
  1077  0018DE                     l416:
  1078                           
  1079                           ;main.c: 131: }
  1080                           ;main.c: 137: if( UCONbits.SUSPND == 1 )
  1081  0018DE  B26D               	btfsc	3949,1,c	;volatile
  1082  0018E0  D7FA               	goto	l5099
  1083                           
  1084                           ;main.c: 141: }
  1085                           ;main.c: 169: APP_DeviceMouseTasks();
  1086                           
  1087                           ;main.c: 138: {
  1088                           ;main.c: 140: continue;
  1089  0018E2  ECD8  F00C         	call	_APP_DeviceMouseTasks	;wreg free
  1090  0018E6  D7F7               	goto	l5099
  1091  0018E8                     __end_of_main:
  1092                           	opt stack 0
  1093                           tblptru	equ	0xFF8
  1094                           tblptrh	equ	0xFF7
  1095                           tblptrl	equ	0xFF6
  1096                           tablat	equ	0xFF5
  1097                           postinc0	equ	0xFEE
  1098                           wreg	equ	0xFE8
  1099                           postdec1	equ	0xFE5
  1100                           fsr1l	equ	0xFE1
  1101                           
  1102 ;; *************** function _USBDeviceInit *****************
  1103 ;; Defined at:
  1104 ;;		line 295 in file "../../../../../../framework/usb/src/usb_device.c"
  1105 ;; Parameters:    Size  Location     Type
  1106 ;;		None
  1107 ;; Auto vars:     Size  Location     Type
  1108 ;;  i               1    2[BANK0 ] unsigned char 
  1109 ;; Return value:  Size  Location     Type
  1110 ;;		None               void
  1111 ;; Registers used:
  1112 ;;		wreg, fsr2l, fsr2h, status,2, status,0, prodl, prodh, cstack
  1113 ;; Tracked objects:
  1114 ;;		On entry : 0/0
  1115 ;;		On exit  : 0/0
  1116 ;;		Unchanged: 0/0
  1117 ;; Data sizes:     COMRAM   BANK0   BANK1   BANK2   BANK3   BANK4   BANK5   BANK6   BANK7
  1118 ;;      Params:         0       0       0       0       0       0       0       0       0
  1119 ;;      Locals:         0       1       0       0       0       0       0       0       0
  1120 ;;      Temps:          0       0       0       0       0       0       0       0       0
  1121 ;;      Totals:         0       1       0       0       0       0       0       0       0
  1122 ;;Total ram usage:        1 bytes
  1123 ;; Hardware stack levels used:    1
  1124 ;; Hardware stack levels required when called:   12
  1125 ;; This function calls:
  1126 ;;		_memset
  1127 ;; This function is called by:
  1128 ;;		_main
  1129 ;; This function uses a non-reentrant model
  1130 ;;
  1131                           
  1132                           	psect	text1
  1133  00029E                     __ptext1:
  1134                           	opt stack 0
  1135  00029E                     _USBDeviceInit:
  1136                           	opt stack 18
  1137                           
  1138                           ;usb_device.c: 297: uint8_t i;
  1139                           ;usb_device.c: 299: {PIE2bits.USBIE = 0;};
  1140                           
  1141                           ;incstack = 0
  1142  00029E  9AA0               	bcf	4000,5,c	;volatile
  1143                           
  1144                           ;usb_device.c: 303: ;
  1145                           ;usb_device.c: 306: {UEIR = 0;};
  1146  0002A0  0E00               	movlw	0
  1147  0002A2  6E6A               	movwf	3946,c	;volatile
  1148                           
  1149                           ;usb_device.c: 309: {UIR = 0;};
  1150  0002A4  0E00               	movlw	0
  1151  0002A6  6E68               	movwf	3944,c	;volatile
  1152                           
  1153                           ;usb_device.c: 312: UEP0 = 0;
  1154  0002A8  0E00               	movlw	0
  1155  0002AA  6E70               	movwf	3952,c	;volatile
  1156                           
  1157                           ;usb_device.c: 314: memset((void*)&UEP1,0x00,(1));;
  1158  0002AC  0E71               	movlw	113
  1159  0002AE  6E2D               	movwf	memset@p1,c
  1160  0002B0  0E0F               	movlw	15
  1161  0002B2  6E2E               	movwf	memset@p1+1,c
  1162  0002B4  0E00               	movlw	0
  1163  0002B6  6E30               	movwf	memset@c+1,c
  1164  0002B8  0E00               	movlw	0
  1165  0002BA  6E2F               	movwf	memset@c,c
  1166  0002BC  0E00               	movlw	0
  1167  0002BE  6E32               	movwf	memset@n+1,c
  1168  0002C0  0E01               	movlw	1
  1169  0002C2  6E31               	movwf	memset@n,c
  1170  0002C4  ECE8  F00D         	call	_memset	;wreg free
  1171                           
  1172                           ;usb_device.c: 316: { UCFG = 0x10 | 0x00 | 0x04 | 0x02; UEIE = 0x9F; UIE = 0x39 | 0x40 |
      +                           0x02; };
  1173  0002C8  0E16               	movlw	22
  1174  0002CA  6E6F               	movwf	3951,c	;volatile
  1175  0002CC  0E9F               	movlw	159
  1176  0002CE  6E6B               	movwf	3947,c	;volatile
  1177  0002D0  0E7B               	movlw	123
  1178  0002D2  6E69               	movwf	3945,c	;volatile
  1179                           
  1180                           ;usb_device.c: 319: ;
  1181                           ;usb_device.c: 322: ;
  1182                           ;usb_device.c: 325: for(i = 0; i < (sizeof(BDT)/sizeof(BDT_ENTRY)); i++)
  1183  0002D4  0E00               	movlw	0
  1184  0002D6  0100               	movlb	0	; () banked
  1185  0002D8  6FBC               	movwf	USBDeviceInit@i& (0+255),b
  1186  0002DA                     l4891:
  1187                           
  1188                           ; BSR set to: 0
  1189  0002DA  0E07               	movlw	7
  1190  0002DC  0100               	movlb	0	; () banked
  1191  0002DE  65BC               	cpfsgt	USBDeviceInit@i& (0+255),b
  1192  0002E0  D001               	goto	l4895
  1193  0002E2  D010               	goto	l765
  1194  0002E4                     l4895:
  1195                           
  1196                           ; BSR set to: 0
  1197                           ;usb_device.c: 326: {
  1198                           ;usb_device.c: 327: BDT[i].Val = 0x00;
  1199  0002E4  0100               	movlb	0	; () banked
  1200  0002E6  51BC               	movf	USBDeviceInit@i& (0+255),w,b
  1201  0002E8  0D04               	mullw	4
  1202  0002EA  0E00               	movlw	0
  1203  0002EC  24F3               	addwf	prodl,w,c
  1204  0002EE  6ED9               	movwf	fsr2l,c
  1205  0002F0  0E04               	movlw	4
  1206  0002F2  20F4               	addwfc	prodh,w,c
  1207  0002F4  6EDA               	movwf	fsr2h,c
  1208  0002F6  6ADE               	clrf	postinc2,c
  1209  0002F8  6ADE               	clrf	postinc2,c
  1210  0002FA  6ADE               	clrf	postinc2,c
  1211  0002FC  6ADD               	clrf	postdec2,c
  1212                           
  1213                           ; BSR set to: 0
  1214  0002FE  0100               	movlb	0	; () banked
  1215  000300  2BBC               	incf	USBDeviceInit@i& (0+255),f,b
  1216  000302  D7EB               	goto	l4891
  1217  000304                     l765:
  1218                           
  1219                           ; BSR set to: 0
  1220                           ;usb_device.c: 328: }
  1221                           ;usb_device.c: 331: UCONbits.PPBRST = 1;
  1222  000304  8C6D               	bsf	3949,6,c	;volatile
  1223                           
  1224                           ; BSR set to: 0
  1225                           ;usb_device.c: 334: UADDR = 0x00;
  1226  000306  0E00               	movlw	0
  1227  000308  6E6E               	movwf	3950,c	;volatile
  1228                           
  1229                           ; BSR set to: 0
  1230                           ;usb_device.c: 337: UCONbits.PKTDIS = 0;
  1231  00030A  986D               	bcf	3949,4,c	;volatile
  1232                           
  1233                           ; BSR set to: 0
  1234                           ;usb_device.c: 340: UCONbits.PPBRST = 0;
  1235  00030C  9C6D               	bcf	3949,6,c	;volatile
  1236  00030E                     l4907:
  1237                           
  1238                           ; BSR set to: 0
  1239                           ;usb_device.c: 344: {
  1240                           ;usb_device.c: 345: (UIR &= 0xF7);
  1241  00030E  9668               	bcf	3944,3,c	;volatile
  1242                           
  1243                           ; BSR set to: 0
  1244                           ;usb_device.c: 347: inPipes[0].info.Val = 0;
  1245  000310  0E00               	movlw	0
  1246  000312  0100               	movlb	0	; () banked
  1247  000314  6F75               	movwf	(_inPipes+3)& (0+255),b	;volatile
  1248                           
  1249                           ; BSR set to: 0
  1250                           ;usb_device.c: 348: outPipes[0].info.Val = 0;
  1251  000316  0E00               	movlw	0
  1252  000318  0100               	movlb	0	; () banked
  1253  00031A  6F6D               	movwf	(_outPipes+3)& (0+255),b	;volatile
  1254                           
  1255                           ; BSR set to: 0
  1256                           ;usb_device.c: 349: outPipes[0].wCount.Val = 0;
  1257  00031C  0E00               	movlw	0
  1258  00031E  0100               	movlb	0	; () banked
  1259  000320  6F6F               	movwf	(_outPipes+5)& (0+255),b	;volatile
  1260  000322  0E00               	movlw	0
  1261  000324  6F6E               	movwf	(_outPipes+4)& (0+255),b	;volatile
  1262                           
  1263                           ; BSR set to: 0
  1264                           ;usb_device.c: 350: }while(UIRbits.TRNIF == 1);
  1265  000326  B668               	btfsc	3944,3,c	;volatile
  1266  000328  D7F2               	goto	l4907
  1267                           
  1268                           ; BSR set to: 0
  1269                           ;usb_device.c: 354: USBStatusStageEnabledFlag1 = 1;
  1270                           
  1271                           ; BSR set to: 0
  1272  00032A  0E01               	movlw	1
  1273  00032C  6E52               	movwf	_USBStatusStageEnabledFlag1,c	;volatile
  1274                           
  1275                           ;usb_device.c: 355: USBStatusStageEnabledFlag2 = 1;
  1276  00032E  0E01               	movlw	1
  1277  000330  6E53               	movwf	_USBStatusStageEnabledFlag2,c	;volatile
  1278                           
  1279                           ;usb_device.c: 357: USBDeferINDataStagePackets = 0;
  1280  000332  0E00               	movlw	0
  1281  000334  6E4E               	movwf	_USBDeferINDataStagePackets,c	;volatile
  1282                           
  1283                           ;usb_device.c: 358: USBDeferOUTDataStagePackets = 0;
  1284  000336  0E00               	movlw	0
  1285  000338  6E4F               	movwf	_USBDeferOUTDataStagePackets,c	;volatile
  1286                           
  1287                           ;usb_device.c: 359: USBBusIsSuspended = 0;
  1288  00033A  0E00               	movlw	0
  1289  00033C  6E4D               	movwf	_USBBusIsSuspended,c	;volatile
  1290                           
  1291                           ;usb_device.c: 363: for(i = 0; i < (uint8_t)(1+1u); i++)
  1292  00033E  0E00               	movlw	0
  1293  000340  0100               	movlb	0	; () banked
  1294  000342  6FBC               	movwf	USBDeviceInit@i& (0+255),b
  1295  000344                     l4919:
  1296                           
  1297                           ; BSR set to: 0
  1298  000344  0E01               	movlw	1
  1299  000346  0100               	movlb	0	; () banked
  1300  000348  65BC               	cpfsgt	USBDeviceInit@i& (0+255),b
  1301  00034A  D001               	goto	l4923
  1302  00034C  D033               	goto	l4929
  1303  00034E                     l4923:
  1304                           
  1305                           ; BSR set to: 0
  1306                           ;usb_device.c: 364: {
  1307                           ;usb_device.c: 365: pBDTEntryIn[i] = 0u;
  1308  00034E  0100               	movlb	0	; () banked
  1309  000350  51BC               	movf	USBDeviceInit@i& (0+255),w,b
  1310  000352  0D02               	mullw	2
  1311  000354  0E78               	movlw	low _pBDTEntryIn
  1312  000356  24F3               	addwf	prodl,w,c
  1313  000358  6ED9               	movwf	fsr2l,c
  1314  00035A  0E00               	movlw	high _pBDTEntryIn
  1315  00035C  20F4               	addwfc	prodh,w,c
  1316  00035E  6EDA               	movwf	fsr2h,c
  1317  000360  0E00               	movlw	0
  1318  000362  6EDE               	movwf	postinc2,c
  1319  000364  0E00               	movlw	0
  1320  000366  6EDD               	movwf	postdec2,c
  1321                           
  1322                           ;usb_device.c: 366: pBDTEntryOut[i] = 0u;
  1323  000368  0100               	movlb	0	; () banked
  1324  00036A  51BC               	movf	USBDeviceInit@i& (0+255),w,b
  1325  00036C  0D02               	mullw	2
  1326  00036E  0E7C               	movlw	low _pBDTEntryOut
  1327  000370  24F3               	addwf	prodl,w,c
  1328  000372  6ED9               	movwf	fsr2l,c
  1329  000374  0E00               	movlw	high _pBDTEntryOut
  1330  000376  20F4               	addwfc	prodh,w,c
  1331  000378  6EDA               	movwf	fsr2h,c
  1332  00037A  0E00               	movlw	0
  1333  00037C  6EDE               	movwf	postinc2,c
  1334  00037E  0E00               	movlw	0
  1335  000380  6EDD               	movwf	postdec2,c
  1336                           
  1337                           ;usb_device.c: 367: ep_data_in[i].Val = 0u;
  1338  000382  0100               	movlb	0	; () banked
  1339  000384  51BC               	movf	USBDeviceInit@i& (0+255),w,b
  1340  000386  0D01               	mullw	1
  1341  000388  0E8F               	movlw	low _ep_data_in
  1342  00038A  24F3               	addwf	prodl,w,c
  1343  00038C  6ED9               	movwf	fsr2l,c
  1344  00038E  0E00               	movlw	high _ep_data_in
  1345  000390  20F4               	addwfc	prodh,w,c
  1346  000392  6EDA               	movwf	fsr2h,c
  1347  000394  0E00               	movlw	0
  1348  000396  6EDF               	movwf	indf2,c
  1349                           
  1350                           ;usb_device.c: 368: ep_data_out[i].Val = 0u;
  1351  000398  0100               	movlb	0	; () banked
  1352  00039A  51BC               	movf	USBDeviceInit@i& (0+255),w,b
  1353  00039C  0D01               	mullw	1
  1354  00039E  0E91               	movlw	low _ep_data_out
  1355  0003A0  24F3               	addwf	prodl,w,c
  1356  0003A2  6ED9               	movwf	fsr2l,c
  1357  0003A4  0E00               	movlw	high _ep_data_out
  1358  0003A6  20F4               	addwfc	prodh,w,c
  1359  0003A8  6EDA               	movwf	fsr2h,c
  1360  0003AA  0E00               	movlw	0
  1361  0003AC  6EDF               	movwf	indf2,c
  1362                           
  1363                           ; BSR set to: 0
  1364  0003AE  0100               	movlb	0	; () banked
  1365  0003B0  2BBC               	incf	USBDeviceInit@i& (0+255),f,b
  1366  0003B2  D7C8               	goto	l4919
  1367  0003B4                     l4929:
  1368                           
  1369                           ; BSR set to: 0
  1370                           ;usb_device.c: 369: }
  1371                           ;usb_device.c: 372: pBDTEntryIn[0] = (volatile BDT_ENTRY*)&BDT[2];
  1372  0003B4  0E08               	movlw	8
  1373  0003B6  0100               	movlb	0	; () banked
  1374  0003B8  6F78               	movwf	_pBDTEntryIn& (0+255),b
  1375  0003BA  0E04               	movlw	4
  1376  0003BC  0100               	movlb	0	; () banked
  1377  0003BE  6F79               	movwf	(_pBDTEntryIn+1)& (0+255),b
  1378                           
  1379                           ; BSR set to: 0
  1380                           ;usb_device.c: 374: UEP0 = 0x06|0x10;
  1381  0003C0  0E16               	movlw	22
  1382  0003C2  6E70               	movwf	3952,c	;volatile
  1383                           
  1384                           ; BSR set to: 0
  1385                           ;usb_device.c: 376: BDT[0].ADR = ((uint16_t)(&SetupPkt));
  1386  0003C4  0E04               	movlw	4
  1387  0003C6  0104               	movlb	4	; () banked
  1388  0003C8  6F03               	movwf	3,b	;volatile
  1389  0003CA  0E20               	movlw	32
  1390  0003CC  6F02               	movwf	2,b	;volatile
  1391                           
  1392                           ; BSR set to: 4
  1393                           ;usb_device.c: 377: BDT[0].CNT = 8;
  1394  0003CE  0E08               	movlw	8
  1395  0003D0  0104               	movlb	4	; () banked
  1396  0003D2  6F01               	movwf	1,b	;volatile
  1397                           
  1398                           ; BSR set to: 4
  1399                           ;usb_device.c: 378: BDT[0].STAT.Val = 0x00|0x04;
  1400  0003D4  0E04               	movlw	4
  1401  0003D6  0104               	movlb	4	; () banked
  1402  0003D8  6F00               	movwf	0,b	;volatile
  1403                           
  1404                           ; BSR set to: 4
  1405                           ;usb_device.c: 379: BDT[0].STAT.Val |= 0x80;
  1406  0003DA  0104               	movlb	4	; () banked
  1407  0003DC  8F00               	bsf	0,7,b	;volatile
  1408                           
  1409                           ; BSR set to: 4
  1410                           ;usb_device.c: 382: USBActiveConfiguration = 0;
  1411  0003DE  0E00               	movlw	0
  1412  0003E0  6E59               	movwf	_USBActiveConfiguration,c	;volatile
  1413                           
  1414                           ; BSR set to: 4
  1415                           ;usb_device.c: 384: USB1msTickCount = 0;
  1416  0003E2  0E00               	movlw	0
  1417  0003E4  6E33               	movwf	_USB1msTickCount,c	;volatile
  1418  0003E6  0E00               	movlw	0
  1419  0003E8  6E34               	movwf	_USB1msTickCount+1,c	;volatile
  1420  0003EA  0E00               	movlw	0
  1421  0003EC  6E35               	movwf	_USB1msTickCount+2,c	;volatile
  1422  0003EE  0E00               	movlw	0
  1423  0003F0  6E36               	movwf	_USB1msTickCount+3,c	;volatile
  1424                           
  1425                           ; BSR set to: 4
  1426                           ;usb_device.c: 385: USBTicksSinceSuspendEnd = 0;
  1427  0003F2  0E00               	movlw	0
  1428  0003F4  6E55               	movwf	_USBTicksSinceSuspendEnd,c	;volatile
  1429                           
  1430                           ; BSR set to: 4
  1431                           ;usb_device.c: 388: USBDeviceState = DETACHED_STATE;
  1432  0003F6  0E00               	movlw	0
  1433  0003F8  6E51               	movwf	_USBDeviceState,c	;volatile
  1434                           
  1435                           ; BSR set to: 4
  1436  0003FA  0012               	return		;funcret
  1437  0003FC                     __end_of_USBDeviceInit:
  1438                           	opt stack 0
  1439                           tblptru	equ	0xFF8
  1440                           tblptrh	equ	0xFF7
  1441                           tblptrl	equ	0xFF6
  1442                           tablat	equ	0xFF5
  1443                           prodh	equ	0xFF4
  1444                           prodl	equ	0xFF3
  1445                           postinc0	equ	0xFEE
  1446                           wreg	equ	0xFE8
  1447                           postdec1	equ	0xFE5
  1448                           fsr1l	equ	0xFE1
  1449                           indf2	equ	0xFDF
  1450                           postinc2	equ	0xFDE
  1451                           postdec2	equ	0xFDD
  1452                           fsr2h	equ	0xFDA
  1453                           fsr2l	equ	0xFD9
  1454                           
  1455 ;; *************** function _memset *****************
  1456 ;; Defined at:
  1457 ;;		line 8 in file "/Applications/microchip/xc8/v1.35/sources/common/memset.c"
  1458 ;; Parameters:    Size  Location     Type
  1459 ;;  p1              2   44[COMRAM] PTR void 
  1460 ;;		 -> USBAlternateInterface(1), BDT(32), UEP1(1), 
  1461 ;;  c               2   46[COMRAM] int 
  1462 ;;  n               2   48[COMRAM] unsigned int 
  1463 ;; Auto vars:     Size  Location     Type
  1464 ;;  p               2    0[BANK0 ] PTR unsigned char 
  1465 ;;		 -> USBAlternateInterface(1), BDT(32), UEP1(1), 
  1466 ;; Return value:  Size  Location     Type
  1467 ;;                  2   44[COMRAM] PTR void 
  1468 ;; Registers used:
  1469 ;;		wreg, fsr2l, fsr2h, status,2, status,0
  1470 ;; Tracked objects:
  1471 ;;		On entry : 0/0
  1472 ;;		On exit  : 0/0
  1473 ;;		Unchanged: 0/0
  1474 ;; Data sizes:     COMRAM   BANK0   BANK1   BANK2   BANK3   BANK4   BANK5   BANK6   BANK7
  1475 ;;      Params:         6       0       0       0       0       0       0       0       0
  1476 ;;      Locals:         0       2       0       0       0       0       0       0       0
  1477 ;;      Temps:          0       0       0       0       0       0       0       0       0
  1478 ;;      Totals:         6       2       0       0       0       0       0       0       0
  1479 ;;Total ram usage:        8 bytes
  1480 ;; Hardware stack levels used:    1
  1481 ;; Hardware stack levels required when called:   11
  1482 ;; This function calls:
  1483 ;;		Nothing
  1484 ;; This function is called by:
  1485 ;;		_USBDeviceInit
  1486 ;; This function uses a non-reentrant model
  1487 ;;
  1488                           
  1489                           	psect	text2
  1490  001BD0                     __ptext2:
  1491                           	opt stack 0
  1492  001BD0                     _memset:
  1493                           	opt stack 18
  1494                           
  1495                           ; BSR set to: 4
  1496                           ;incstack = 0
  1497  001BD0  C02D  F0BA         	movff	memset@p1,memset@p
  1498  001BD4  C02E  F0BB         	movff	memset@p1+1,memset@p+1
  1499  001BD8  D009               	goto	l4559
  1500  001BDA                     l4555:
  1501  001BDA  C0BA  FFD9         	movff	memset@p,fsr2l
  1502  001BDE  C0BB  FFDA         	movff	memset@p+1,fsr2h
  1503  001BE2  C02F  FFDF         	movff	memset@c,indf2
  1504  001BE6  0100               	movlb	0	; () banked
  1505  001BE8  4BBA               	infsnz	memset@p& (0+255),f,b
  1506  001BEA  2BBB               	incf	(memset@p+1)& (0+255),f,b
  1507  001BEC                     l4559:
  1508  001BEC  0631               	decf	memset@n,f,c
  1509  001BEE  A0D8               	btfss	status,0,c
  1510  001BF0  0632               	decf	memset@n+1,f,c
  1511  001BF2  2831               	incf	memset@n,w,c
  1512  001BF4  E1F2               	bnz	l4555
  1513  001BF6  2832               	incf	memset@n+1,w,c
  1514  001BF8  B4D8               	btfsc	status,2,c
  1515  001BFA  0012               	return	
  1516  001BFC  D7EE               	goto	l4555
  1517  001BFE                     __end_of_memset:
  1518                           	opt stack 0
  1519                           tblptru	equ	0xFF8
  1520                           tblptrh	equ	0xFF7
  1521                           tblptrl	equ	0xFF6
  1522                           tablat	equ	0xFF5
  1523                           prodh	equ	0xFF4
  1524                           prodl	equ	0xFF3
  1525                           postinc0	equ	0xFEE
  1526                           wreg	equ	0xFE8
  1527                           postdec1	equ	0xFE5
  1528                           fsr1l	equ	0xFE1
  1529                           indf2	equ	0xFDF
  1530                           postinc2	equ	0xFDE
  1531                           postdec2	equ	0xFDD
  1532                           fsr2h	equ	0xFDA
  1533                           fsr2l	equ	0xFD9
  1534                           status	equ	0xFD8
  1535                           
  1536 ;; *************** function _USBDeviceAttach *****************
  1537 ;; Defined at:
  1538 ;;		line 1370 in file "../../../../../../framework/usb/src/usb_device.c"
  1539 ;; Parameters:    Size  Location     Type
  1540 ;;		None
  1541 ;; Auto vars:     Size  Location     Type
  1542 ;;		None
  1543 ;; Return value:  Size  Location     Type
  1544 ;;		None               void
  1545 ;; Registers used:
  1546 ;;		wreg, status,2
  1547 ;; Tracked objects:
  1548 ;;		On entry : 0/0
  1549 ;;		On exit  : 0/0
  1550 ;;		Unchanged: 0/0
  1551 ;; Data sizes:     COMRAM   BANK0   BANK1   BANK2   BANK3   BANK4   BANK5   BANK6   BANK7
  1552 ;;      Params:         0       0       0       0       0       0       0       0       0
  1553 ;;      Locals:         0       0       0       0       0       0       0       0       0
  1554 ;;      Temps:          0       0       0       0       0       0       0       0       0
  1555 ;;      Totals:         0       0       0       0       0       0       0       0       0
  1556 ;;Total ram usage:        0 bytes
  1557 ;; Hardware stack levels used:    1
  1558 ;; Hardware stack levels required when called:   11
  1559 ;; This function calls:
  1560 ;;		Nothing
  1561 ;; This function is called by:
  1562 ;;		_main
  1563 ;; This function uses a non-reentrant model
  1564 ;;
  1565                           
  1566                           	psect	text3
  1567  001BA0                     __ptext3:
  1568                           	opt stack 0
  1569  001BA0                     _USBDeviceAttach:
  1570                           	opt stack 19
  1571                           
  1572                           ;usb_device.c: 1374: {
  1573                           ;usb_device.c: 1375: if(1 == 1)
  1574                           
  1575                           ;incstack = 0
  1576  001BA0  5051               	movf	_USBDeviceState,w,c	;volatile
  1577  001BA2  A4D8               	btfss	status,2,c
  1578  001BA4  0012               	return	
  1579                           
  1580                           ;usb_device.c: 1376: {
  1581                           ;usb_device.c: 1378: UCON = 0;
  1582  001BA6  0E00               	movlw	0
  1583  001BA8  6E6D               	movwf	3949,c	;volatile
  1584                           
  1585                           ;usb_device.c: 1381: UIE = 0;
  1586  001BAA  0E00               	movlw	0
  1587  001BAC  6E69               	movwf	3945,c	;volatile
  1588                           
  1589                           ;usb_device.c: 1385: { UCFG = 0x10 | 0x00 | 0x04 | 0x02; UEIE = 0x9F; UIE = 0x39 | 0x40 
      +                          | 0x02; };
  1590  001BAE  0E16               	movlw	22
  1591  001BB0  6E6F               	movwf	3951,c	;volatile
  1592  001BB2  0E9F               	movlw	159
  1593  001BB4  6E6B               	movwf	3947,c	;volatile
  1594  001BB6  0E7B               	movlw	123
  1595  001BB8  6E69               	movwf	3945,c	;volatile
  1596                           
  1597                           ;usb_device.c: 1387: {RCONbits.IPEN = 1;IPR2bits.USBIP = 1;PIE2bits.USBIE = 1;INTCONbits
      +                          .GIEH = 1;};
  1598  001BBA  8ED0               	bsf	4048,7,c	;volatile
  1599  001BBC  8AA2               	bsf	4002,5,c	;volatile
  1600  001BBE  8AA0               	bsf	4000,5,c	;volatile
  1601  001BC0  8EF2               	bsf	intcon,7,c	;volatile
  1602                           
  1603                           ;usb_device.c: 1390: while(!UCONbits.USBEN){UCONbits.USBEN = 1;}
  1604  001BC2  D001               	goto	l825
  1605  001BC4                     l826:
  1606  001BC4  866D               	bsf	3949,3,c	;volatile
  1607  001BC6                     l825:
  1608  001BC6  A66D               	btfss	3949,3,c	;volatile
  1609  001BC8  D7FD               	goto	l826
  1610                           
  1611                           ;usb_device.c: 1393: USBDeviceState = ATTACHED_STATE;
  1612  001BCA  0E01               	movlw	1
  1613  001BCC  6E51               	movwf	_USBDeviceState,c	;volatile
  1614  001BCE  0012               	return	
  1615  001BD0                     __end_of_USBDeviceAttach:
  1616                           	opt stack 0
  1617                           tblptru	equ	0xFF8
  1618                           tblptrh	equ	0xFF7
  1619                           tblptrl	equ	0xFF6
  1620                           tablat	equ	0xFF5
  1621                           prodh	equ	0xFF4
  1622                           prodl	equ	0xFF3
  1623                           intcon	equ	0xFF2
  1624                           postinc0	equ	0xFEE
  1625                           wreg	equ	0xFE8
  1626                           postdec1	equ	0xFE5
  1627                           fsr1l	equ	0xFE1
  1628                           indf2	equ	0xFDF
  1629                           postinc2	equ	0xFDE
  1630                           postdec2	equ	0xFDD
  1631                           fsr2h	equ	0xFDA
  1632                           fsr2l	equ	0xFD9
  1633                           status	equ	0xFD8
  1634                           
  1635 ;; *************** function _SYSTEM_Initialize *****************
  1636 ;; Defined at:
  1637 ;;		line 81 in file "../src/system_config/picdem_fs_usb/system.c"
  1638 ;; Parameters:    Size  Location     Type
  1639 ;;  state           1    wreg     enum E4693
  1640 ;; Auto vars:     Size  Location     Type
  1641 ;;  state           1   45[COMRAM] enum E4693
  1642 ;; Return value:  Size  Location     Type
  1643 ;;		None               void
  1644 ;; Registers used:
  1645 ;;		wreg, status,2, status,0, cstack
  1646 ;; Tracked objects:
  1647 ;;		On entry : 0/0
  1648 ;;		On exit  : 0/0
  1649 ;;		Unchanged: 0/0
  1650 ;; Data sizes:     COMRAM   BANK0   BANK1   BANK2   BANK3   BANK4   BANK5   BANK6   BANK7
  1651 ;;      Params:         0       0       0       0       0       0       0       0       0
  1652 ;;      Locals:         1       0       0       0       0       0       0       0       0
  1653 ;;      Temps:          0       0       0       0       0       0       0       0       0
  1654 ;;      Totals:         1       0       0       0       0       0       0       0       0
  1655 ;;Total ram usage:        1 bytes
  1656 ;; Hardware stack levels used:    1
  1657 ;; Hardware stack levels required when called:   12
  1658 ;; This function calls:
  1659 ;;		_BUTTON_Enable
  1660 ;;		_LED_Enable
  1661 ;; This function is called by:
  1662 ;;		_main
  1663 ;; This function uses a non-reentrant model
  1664 ;;
  1665                           
  1666                           	psect	text4
  1667  001CB0                     __ptext4:
  1668                           	opt stack 0
  1669  001CB0                     _SYSTEM_Initialize:
  1670                           	opt stack 18
  1671                           
  1672                           ;incstack = 0
  1673                           ;SYSTEM_Initialize@state stored from wreg
  1674  001CB0  6E2E               	movwf	SYSTEM_Initialize@state,c
  1675                           
  1676                           ;system.c: 83: switch(state)
  1677  001CB2  D007               	goto	l4721
  1678  001CB4                     l4717:
  1679                           
  1680                           ;system.c: 86: LED_Enable(LED_D1);
  1681  001CB4  0E01               	movlw	1
  1682  001CB6  EC30  F00D         	call	_LED_Enable
  1683                           
  1684                           ;system.c: 87: BUTTON_Enable(BUTTON_S2);
  1685  001CBA  0E01               	movlw	1
  1686  001CBC  EC7C  F00E         	call	_BUTTON_Enable
  1687                           
  1688                           ;system.c: 95: }
  1689                           
  1690                           ;system.c: 94: break;
  1691                           
  1692                           ;system.c: 93: case SYSTEM_STATE_USB_RESUME:
  1693                           
  1694                           ;system.c: 91: break;
  1695                           
  1696                           ;system.c: 90: case SYSTEM_STATE_USB_SUSPEND:
  1697                           
  1698                           ;system.c: 88: break;
  1699  001CC0  0012               	return	
  1700  001CC2                     l4721:
  1701  001CC2  502E               	movf	SYSTEM_Initialize@state,w,c
  1702                           
  1703                           ; Switch size 1, requested type "space"
  1704                           ; Number of cases is 3, Range of values is 0 to 2
  1705                           ; switch strategies available:
  1706                           ; Name         Instructions Cycles
  1707                           ; simple_byte           10     6 (average)
  1708                           ;	Chosen strategy is simple_byte
  1709  001CC4  0A00               	xorlw	0	; case 0
  1710  001CC6  B4D8               	btfsc	status,2,c
  1711  001CC8  D7F5               	goto	l4717
  1712  001CCA  0A01               	xorlw	1	; case 1
  1713  001CCC  B4D8               	btfsc	status,2,c
  1714  001CCE  0012               	return	
  1715  001CD0  0A03               	xorlw	3	; case 2
  1716  001CD2  0012               	return	
  1717  001CD4                     __end_of_SYSTEM_Initialize:
  1718                           	opt stack 0
  1719                           tblptru	equ	0xFF8
  1720                           tblptrh	equ	0xFF7
  1721                           tblptrl	equ	0xFF6
  1722                           tablat	equ	0xFF5
  1723                           prodh	equ	0xFF4
  1724                           prodl	equ	0xFF3
  1725                           intcon	equ	0xFF2
  1726                           postinc0	equ	0xFEE
  1727                           wreg	equ	0xFE8
  1728                           postdec1	equ	0xFE5
  1729                           fsr1l	equ	0xFE1
  1730                           indf2	equ	0xFDF
  1731                           postinc2	equ	0xFDE
  1732                           postdec2	equ	0xFDD
  1733                           fsr2h	equ	0xFDA
  1734                           fsr2l	equ	0xFD9
  1735                           status	equ	0xFD8
  1736                           
  1737 ;; *************** function _LED_Enable *****************
  1738 ;; Defined at:
  1739 ;;		line 257 in file "../../../../../../bsp/picdem_fs_usb/leds.c"
  1740 ;; Parameters:    Size  Location     Type
  1741 ;;  led             1    wreg     enum E2
  1742 ;; Auto vars:     Size  Location     Type
  1743 ;;  led             1   44[COMRAM] enum E2
  1744 ;; Return value:  Size  Location     Type
  1745 ;;		None               void
  1746 ;; Registers used:
  1747 ;;		wreg, status,2, status,0
  1748 ;; Tracked objects:
  1749 ;;		On entry : 0/0
  1750 ;;		On exit  : 0/0
  1751 ;;		Unchanged: 0/0
  1752 ;; Data sizes:     COMRAM   BANK0   BANK1   BANK2   BANK3   BANK4   BANK5   BANK6   BANK7
  1753 ;;      Params:         0       0       0       0       0       0       0       0       0
  1754 ;;      Locals:         1       0       0       0       0       0       0       0       0
  1755 ;;      Temps:          0       0       0       0       0       0       0       0       0
  1756 ;;      Totals:         1       0       0       0       0       0       0       0       0
  1757 ;;Total ram usage:        1 bytes
  1758 ;; Hardware stack levels used:    1
  1759 ;; Hardware stack levels required when called:   11
  1760 ;; This function calls:
  1761 ;;		Nothing
  1762 ;; This function is called by:
  1763 ;;		_SYSTEM_Initialize
  1764 ;; This function uses a non-reentrant model
  1765 ;;
  1766                           
  1767                           	psect	text5
  1768  001A60                     __ptext5:
  1769                           	opt stack 0
  1770  001A60                     _LED_Enable:
  1771                           	opt stack 18
  1772                           
  1773                           ;incstack = 0
  1774                           ;LED_Enable@led stored from wreg
  1775  001A60  6E2D               	movwf	LED_Enable@led,c
  1776                           
  1777                           ;leds.c: 259: switch(led)
  1778  001A62  D008               	goto	l4525
  1779  001A64                     l619:
  1780                           
  1781                           ;leds.c: 262: TRISDbits.TRISD0 = 0;
  1782  001A64  9095               	bcf	3989,0,c	;volatile
  1783                           
  1784                           ;leds.c: 263: break;
  1785  001A66  0012               	return	
  1786  001A68                     l621:
  1787                           
  1788                           ;leds.c: 266: TRISDbits.TRISD1 = 0;
  1789  001A68  9295               	bcf	3989,1,c	;volatile
  1790                           
  1791                           ;leds.c: 267: break;
  1792  001A6A  0012               	return	
  1793  001A6C                     l622:
  1794                           
  1795                           ;leds.c: 270: TRISDbits.TRISD2 = 0;
  1796  001A6C  9495               	bcf	3989,2,c	;volatile
  1797                           
  1798                           ;leds.c: 271: break;
  1799  001A6E  0012               	return	
  1800  001A70                     l623:
  1801                           
  1802                           ;leds.c: 274: TRISDbits.TRISD3 = 0;
  1803  001A70  9695               	bcf	3989,3,c	;volatile
  1804                           
  1805                           ;leds.c: 279: }
  1806                           
  1807                           ;leds.c: 278: break;
  1808                           
  1809                           ;leds.c: 277: case LED_NONE:
  1810                           
  1811                           ;leds.c: 275: break;
  1812  001A72  0012               	return	
  1813  001A74                     l4525:
  1814  001A74  502D               	movf	LED_Enable@led,w,c
  1815                           
  1816                           ; Switch size 1, requested type "space"
  1817                           ; Number of cases is 5, Range of values is 0 to 4
  1818                           ; switch strategies available:
  1819                           ; Name         Instructions Cycles
  1820                           ; simple_byte           16     9 (average)
  1821                           ;	Chosen strategy is simple_byte
  1822  001A76  0A00               	xorlw	0	; case 0
  1823  001A78  B4D8               	btfsc	status,2,c
  1824  001A7A  0012               	return	
  1825  001A7C  0A01               	xorlw	1	; case 1
  1826  001A7E  B4D8               	btfsc	status,2,c
  1827  001A80  D7F1               	goto	l619
  1828  001A82  0A03               	xorlw	3	; case 2
  1829  001A84  B4D8               	btfsc	status,2,c
  1830  001A86  D7F0               	goto	l621
  1831  001A88  0A01               	xorlw	1	; case 3
  1832  001A8A  B4D8               	btfsc	status,2,c
  1833  001A8C  D7EF               	goto	l622
  1834  001A8E  0A07               	xorlw	7	; case 4
  1835  001A90  A4D8               	btfss	status,2,c
  1836  001A92  0012               	return	
  1837  001A94  D7ED               	goto	l623
  1838  001A96                     __end_of_LED_Enable:
  1839                           	opt stack 0
  1840                           tblptru	equ	0xFF8
  1841                           tblptrh	equ	0xFF7
  1842                           tblptrl	equ	0xFF6
  1843                           tablat	equ	0xFF5
  1844                           prodh	equ	0xFF4
  1845                           prodl	equ	0xFF3
  1846                           intcon	equ	0xFF2
  1847                           postinc0	equ	0xFEE
  1848                           wreg	equ	0xFE8
  1849                           postdec1	equ	0xFE5
  1850                           fsr1l	equ	0xFE1
  1851                           indf2	equ	0xFDF
  1852                           postinc2	equ	0xFDE
  1853                           postdec2	equ	0xFDD
  1854                           fsr2h	equ	0xFDA
  1855                           fsr2l	equ	0xFD9
  1856                           status	equ	0xFD8
  1857                           
  1858 ;; *************** function _BUTTON_Enable *****************
  1859 ;; Defined at:
  1860 ;;		line 128 in file "../../../../../../bsp/picdem_fs_usb/buttons.c"
  1861 ;; Parameters:    Size  Location     Type
  1862 ;;  button          1    wreg     enum E4441
  1863 ;; Auto vars:     Size  Location     Type
  1864 ;;  button          1   44[COMRAM] enum E4441
  1865 ;; Return value:  Size  Location     Type
  1866 ;;		None               void
  1867 ;; Registers used:
  1868 ;;		wreg, status,2, status,0
  1869 ;; Tracked objects:
  1870 ;;		On entry : 0/0
  1871 ;;		On exit  : 0/0
  1872 ;;		Unchanged: 0/0
  1873 ;; Data sizes:     COMRAM   BANK0   BANK1   BANK2   BANK3   BANK4   BANK5   BANK6   BANK7
  1874 ;;      Params:         0       0       0       0       0       0       0       0       0
  1875 ;;      Locals:         1       0       0       0       0       0       0       0       0
  1876 ;;      Temps:          0       0       0       0       0       0       0       0       0
  1877 ;;      Totals:         1       0       0       0       0       0       0       0       0
  1878 ;;Total ram usage:        1 bytes
  1879 ;; Hardware stack levels used:    1
  1880 ;; Hardware stack levels required when called:   11
  1881 ;; This function calls:
  1882 ;;		Nothing
  1883 ;; This function is called by:
  1884 ;;		_SYSTEM_Initialize
  1885 ;; This function uses a non-reentrant model
  1886 ;;
  1887                           
  1888                           	psect	text6
  1889  001CF8                     __ptext6:
  1890                           	opt stack 0
  1891  001CF8                     _BUTTON_Enable:
  1892                           	opt stack 18
  1893                           
  1894                           ;incstack = 0
  1895                           ;BUTTON_Enable@button stored from wreg
  1896  001CF8  6E2D               	movwf	BUTTON_Enable@button,c
  1897                           
  1898                           ;buttons.c: 130: switch(button)
  1899  001CFA  D004               	goto	l4531
  1900  001CFC                     l567:
  1901                           
  1902                           ;buttons.c: 133: TRISBbits.TRISB4 = 1;
  1903  001CFC  8893               	bsf	3987,4,c	;volatile
  1904                           
  1905                           ;buttons.c: 134: break;
  1906  001CFE  0012               	return	
  1907  001D00                     l569:
  1908                           
  1909                           ;buttons.c: 137: TRISBbits.TRISB5 = 1;
  1910  001D00  8A93               	bsf	3987,5,c	;volatile
  1911                           
  1912                           ;buttons.c: 142: }
  1913                           
  1914                           ;buttons.c: 141: break;
  1915                           
  1916                           ;buttons.c: 140: case BUTTON_NONE:
  1917                           
  1918                           ;buttons.c: 138: break;
  1919  001D02  0012               	return	
  1920  001D04                     l4531:
  1921  001D04  502D               	movf	BUTTON_Enable@button,w,c
  1922                           
  1923                           ; Switch size 1, requested type "space"
  1924                           ; Number of cases is 3, Range of values is 0 to 2
  1925                           ; switch strategies available:
  1926                           ; Name         Instructions Cycles
  1927                           ; simple_byte           10     6 (average)
  1928                           ;	Chosen strategy is simple_byte
  1929  001D06  0A00               	xorlw	0	; case 0
  1930  001D08  B4D8               	btfsc	status,2,c
  1931  001D0A  0012               	return	
  1932  001D0C  0A01               	xorlw	1	; case 1
  1933  001D0E  B4D8               	btfsc	status,2,c
  1934  001D10  D7F5               	goto	l567
  1935  001D12  0A03               	xorlw	3	; case 2
  1936  001D14  A4D8               	btfss	status,2,c
  1937  001D16  0012               	return	
  1938  001D18  D7F3               	goto	l569
  1939  001D1A                     __end_of_BUTTON_Enable:
  1940                           	opt stack 0
  1941                           tblptru	equ	0xFF8
  1942                           tblptrh	equ	0xFF7
  1943                           tblptrl	equ	0xFF6
  1944                           tablat	equ	0xFF5
  1945                           prodh	equ	0xFF4
  1946                           prodl	equ	0xFF3
  1947                           intcon	equ	0xFF2
  1948                           postinc0	equ	0xFEE
  1949                           wreg	equ	0xFE8
  1950                           postdec1	equ	0xFE5
  1951                           fsr1l	equ	0xFE1
  1952                           indf2	equ	0xFDF
  1953                           postinc2	equ	0xFDE
  1954                           postdec2	equ	0xFDD
  1955                           fsr2h	equ	0xFDA
  1956                           fsr2l	equ	0xFD9
  1957                           status	equ	0xFD8
  1958                           
  1959 ;; *************** function _OpenI2C *****************
  1960 ;; Defined at:
  1961 ;;		line 14 in file "../../../../../../../../../Desktop/IMU/i2c/i2c_open.c"
  1962 ;; Parameters:    Size  Location     Type
  1963 ;;  sync_mode       1    wreg     unsigned char 
  1964 ;;  slew            1   44[COMRAM] unsigned char 
  1965 ;; Auto vars:     Size  Location     Type
  1966 ;;  sync_mode       1   45[COMRAM] unsigned char 
  1967 ;; Return value:  Size  Location     Type
  1968 ;;		None               void
  1969 ;; Registers used:
  1970 ;;		wreg, status,2, status,0
  1971 ;; Tracked objects:
  1972 ;;		On entry : 0/0
  1973 ;;		On exit  : 0/0
  1974 ;;		Unchanged: 0/0
  1975 ;; Data sizes:     COMRAM   BANK0   BANK1   BANK2   BANK3   BANK4   BANK5   BANK6   BANK7
  1976 ;;      Params:         1       0       0       0       0       0       0       0       0
  1977 ;;      Locals:         1       0       0       0       0       0       0       0       0
  1978 ;;      Temps:          0       0       0       0       0       0       0       0       0
  1979 ;;      Totals:         2       0       0       0       0       0       0       0       0
  1980 ;;Total ram usage:        2 bytes
  1981 ;; Hardware stack levels used:    1
  1982 ;; Hardware stack levels required when called:   11
  1983 ;; This function calls:
  1984 ;;		Nothing
  1985 ;; This function is called by:
  1986 ;;		_main
  1987 ;; This function uses a non-reentrant model
  1988 ;;
  1989                           
  1990                           	psect	text7
  1991  001D3C                     __ptext7:
  1992                           	opt stack 0
  1993  001D3C                     _OpenI2C:
  1994                           	opt stack 19
  1995                           
  1996                           ;incstack = 0
  1997                           ;OpenI2C@sync_mode stored from wreg
  1998  001D3C  6E2E               	movwf	OpenI2C@sync_mode,c
  1999                           
  2000                           ;i2c_open.c: 16: SSPSTAT &= 0x3F;
  2001  001D3E  0E3F               	movlw	63
  2002  001D40  16C7               	andwf	4039,f,c	;volatile
  2003                           
  2004                           ;i2c_open.c: 17: SSPCON1 = 0x00;
  2005  001D42  0E00               	movlw	0
  2006  001D44  6EC6               	movwf	4038,c	;volatile
  2007                           
  2008                           ;i2c_open.c: 18: SSPCON2 = 0x00;
  2009  001D46  0E00               	movlw	0
  2010  001D48  6EC5               	movwf	4037,c	;volatile
  2011                           
  2012                           ;i2c_open.c: 19: SSPCON1 |= sync_mode;
  2013  001D4A  502E               	movf	OpenI2C@sync_mode,w,c
  2014  001D4C  12C6               	iorwf	4038,f,c	;volatile
  2015                           
  2016                           ;i2c_open.c: 20: SSPSTAT |= slew;
  2017  001D4E  502D               	movf	OpenI2C@slew,w,c
  2018  001D50  12C7               	iorwf	4039,f,c	;volatile
  2019                           
  2020                           ;i2c_open.c: 22: TRISBbits.TRISB1 = 1;
  2021  001D52  8293               	bsf	3987,1,c	;volatile
  2022                           
  2023                           ;i2c_open.c: 23: TRISBbits.TRISB0 = 1;
  2024  001D54  8093               	bsf	3987,0,c	;volatile
  2025                           
  2026                           ;i2c_open.c: 24: SSPCON1 |= 0b00100000;
  2027  001D56  8AC6               	bsf	4038,5,c	;volatile
  2028  001D58  0012               	return		;funcret
  2029  001D5A                     __end_of_OpenI2C:
  2030                           	opt stack 0
  2031                           tblptru	equ	0xFF8
  2032                           tblptrh	equ	0xFF7
  2033                           tblptrl	equ	0xFF6
  2034                           tablat	equ	0xFF5
  2035                           prodh	equ	0xFF4
  2036                           prodl	equ	0xFF3
  2037                           intcon	equ	0xFF2
  2038                           postinc0	equ	0xFEE
  2039                           wreg	equ	0xFE8
  2040                           postdec1	equ	0xFE5
  2041                           fsr1l	equ	0xFE1
  2042                           indf2	equ	0xFDF
  2043                           postinc2	equ	0xFDE
  2044                           postdec2	equ	0xFDD
  2045                           fsr2h	equ	0xFDA
  2046                           fsr2l	equ	0xFD9
  2047                           status	equ	0xFD8
  2048                           
  2049 ;; *************** function _MPU6050_Init *****************
  2050 ;; Defined at:
  2051 ;;		line 148 in file "../../../../../../../../../Desktop/IMU/MPU6050.h"
  2052 ;; Parameters:    Size  Location     Type
  2053 ;;		None
  2054 ;; Auto vars:     Size  Location     Type
  2055 ;;		None
  2056 ;; Return value:  Size  Location     Type
  2057 ;;		None               void
  2058 ;; Registers used:
  2059 ;;		wreg, status,2, status,0, cstack
  2060 ;; Tracked objects:
  2061 ;;		On entry : 0/0
  2062 ;;		On exit  : 0/0
  2063 ;;		Unchanged: 0/0
  2064 ;; Data sizes:     COMRAM   BANK0   BANK1   BANK2   BANK3   BANK4   BANK5   BANK6   BANK7
  2065 ;;      Params:         0       0       0       0       0       0       0       0       0
  2066 ;;      Locals:         0       0       0       0       0       0       0       0       0
  2067 ;;      Temps:          0       0       0       0       0       0       0       0       0
  2068 ;;      Totals:         0       0       0       0       0       0       0       0       0
  2069 ;;Total ram usage:        0 bytes
  2070 ;; Hardware stack levels used:    1
  2071 ;; Hardware stack levels required when called:   13
  2072 ;; This function calls:
  2073 ;;		_IdleI2C
  2074 ;;		_WriteI2C
  2075 ;; This function is called by:
  2076 ;;		_main
  2077 ;; This function uses a non-reentrant model
  2078 ;;
  2079                           
  2080                           	psect	text8
  2081  00162C                     __ptext8:
  2082                           	opt stack 0
  2083  00162C                     _MPU6050_Init:
  2084                           	opt stack 17
  2085                           
  2086                           ;MPU6050.h: 151: SSPCON2bits.SEN=1;while(SSPCON2bits.SEN);
  2087                           
  2088                           ;incstack = 0
  2089  00162C  80C5               	bsf	4037,0,c	;volatile
  2090  00162E                     l238:
  2091  00162E  B0C5               	btfsc	4037,0,c	;volatile
  2092  001630  D7FE               	goto	l238
  2093                           
  2094                           ;MPU6050.h: 152: IdleI2C();
  2095  001632  ECE4  F00E         	call	_IdleI2C	;wreg free
  2096                           
  2097                           ;MPU6050.h: 153: WriteI2C(0xD0);
  2098  001636  0ED0               	movlw	208
  2099  001638  ECC1  F00B         	call	_WriteI2C
  2100                           
  2101                           ;MPU6050.h: 154: IdleI2C();
  2102  00163C  ECE4  F00E         	call	_IdleI2C	;wreg free
  2103                           
  2104                           ;MPU6050.h: 155: WriteI2C(0x6B);
  2105  001640  0E6B               	movlw	107
  2106  001642  ECC1  F00B         	call	_WriteI2C
  2107                           
  2108                           ;MPU6050.h: 156: IdleI2C();
  2109  001646  ECE4  F00E         	call	_IdleI2C	;wreg free
  2110                           
  2111                           ;MPU6050.h: 157: WriteI2C(2);
  2112  00164A  0E02               	movlw	2
  2113  00164C  ECC1  F00B         	call	_WriteI2C
  2114                           
  2115                           ;MPU6050.h: 158: IdleI2C();
  2116  001650  ECE4  F00E         	call	_IdleI2C	;wreg free
  2117                           
  2118                           ;MPU6050.h: 159: WriteI2C(0);
  2119  001654  0E00               	movlw	0
  2120  001656  ECC1  F00B         	call	_WriteI2C
  2121                           
  2122                           ;MPU6050.h: 160: IdleI2C();
  2123  00165A  ECE4  F00E         	call	_IdleI2C	;wreg free
  2124                           
  2125                           ;MPU6050.h: 161: SSPCON2bits.PEN=1;while(SSPCON2bits.PEN);
  2126  00165E  84C5               	bsf	4037,2,c	;volatile
  2127  001660                     l241:
  2128  001660  B4C5               	btfsc	4037,2,c	;volatile
  2129  001662  D7FE               	goto	l241
  2130                           
  2131                           ;MPU6050.h: 163: SSPCON2bits.SEN=1;while(SSPCON2bits.SEN);
  2132  001664  80C5               	bsf	4037,0,c	;volatile
  2133  001666                     l244:
  2134  001666  B0C5               	btfsc	4037,0,c	;volatile
  2135  001668  D7FE               	goto	l244
  2136                           
  2137                           ;MPU6050.h: 164: IdleI2C();
  2138  00166A  ECE4  F00E         	call	_IdleI2C	;wreg free
  2139                           
  2140                           ;MPU6050.h: 165: WriteI2C((0xD0));
  2141  00166E  0ED0               	movlw	208
  2142  001670  ECC1  F00B         	call	_WriteI2C
  2143                           
  2144                           ;MPU6050.h: 166: IdleI2C();
  2145  001674  ECE4  F00E         	call	_IdleI2C	;wreg free
  2146                           
  2147                           ;MPU6050.h: 167: WriteI2C(0x1B);
  2148  001678  0E1B               	movlw	27
  2149  00167A  ECC1  F00B         	call	_WriteI2C
  2150                           
  2151                           ;MPU6050.h: 168: IdleI2C();
  2152  00167E  ECE4  F00E         	call	_IdleI2C	;wreg free
  2153                           
  2154                           ;MPU6050.h: 169: WriteI2C(0);
  2155  001682  0E00               	movlw	0
  2156  001684  ECC1  F00B         	call	_WriteI2C
  2157                           
  2158                           ;MPU6050.h: 170: IdleI2C();
  2159  001688  ECE4  F00E         	call	_IdleI2C	;wreg free
  2160                           
  2161                           ;MPU6050.h: 171: WriteI2C(0);
  2162  00168C  0E00               	movlw	0
  2163  00168E  ECC1  F00B         	call	_WriteI2C
  2164                           
  2165                           ;MPU6050.h: 172: IdleI2C();
  2166  001692  ECE4  F00E         	call	_IdleI2C	;wreg free
  2167                           
  2168                           ;MPU6050.h: 173: SSPCON2bits.PEN=1;while(SSPCON2bits.PEN);
  2169  001696  84C5               	bsf	4037,2,c	;volatile
  2170  001698                     l247:
  2171  001698  A4C5               	btfss	4037,2,c	;volatile
  2172  00169A  0012               	return	
  2173  00169C  D7FD               	goto	l247
  2174  00169E                     __end_of_MPU6050_Init:
  2175                           	opt stack 0
  2176                           tblptru	equ	0xFF8
  2177                           tblptrh	equ	0xFF7
  2178                           tblptrl	equ	0xFF6
  2179                           tablat	equ	0xFF5
  2180                           prodh	equ	0xFF4
  2181                           prodl	equ	0xFF3
  2182                           intcon	equ	0xFF2
  2183                           postinc0	equ	0xFEE
  2184                           wreg	equ	0xFE8
  2185                           postdec1	equ	0xFE5
  2186                           fsr1l	equ	0xFE1
  2187                           indf2	equ	0xFDF
  2188                           postinc2	equ	0xFDE
  2189                           postdec2	equ	0xFDD
  2190                           fsr2h	equ	0xFDA
  2191                           fsr2l	equ	0xFD9
  2192                           status	equ	0xFD8
  2193                           
  2194 ;; *************** function _WriteI2C *****************
  2195 ;; Defined at:
  2196 ;;		line 12 in file "../../../../../../../../../Desktop/IMU/i2c/i2c_writ.c"
  2197 ;; Parameters:    Size  Location     Type
  2198 ;;  data_out        1    wreg     unsigned char 
  2199 ;; Auto vars:     Size  Location     Type
  2200 ;;  data_out        1   45[COMRAM] unsigned char 
  2201 ;; Return value:  Size  Location     Type
  2202 ;;                  1    wreg      char 
  2203 ;; Registers used:
  2204 ;;		wreg, status,2, status,0, cstack
  2205 ;; Tracked objects:
  2206 ;;		On entry : 0/0
  2207 ;;		On exit  : 0/0
  2208 ;;		Unchanged: 0/0
  2209 ;; Data sizes:     COMRAM   BANK0   BANK1   BANK2   BANK3   BANK4   BANK5   BANK6   BANK7
  2210 ;;      Params:         0       0       0       0       0       0       0       0       0
  2211 ;;      Locals:         1       0       0       0       0       0       0       0       0
  2212 ;;      Temps:          0       0       0       0       0       0       0       0       0
  2213 ;;      Totals:         1       0       0       0       0       0       0       0       0
  2214 ;;Total ram usage:        1 bytes
  2215 ;; Hardware stack levels used:    1
  2216 ;; Hardware stack levels required when called:   12
  2217 ;; This function calls:
  2218 ;;		_IdleI2C
  2219 ;; This function is called by:
  2220 ;;		_MPU6050_Init
  2221 ;;		_MPU6050_Read
  2222 ;;		_MPU6050_ReadAccZ
  2223 ;;		_MPU6050_ReadGyroAccX
  2224 ;;		_MPU6050_ReadGyroY
  2225 ;;		_MPU6050_ReadGyroZ
  2226 ;; This function uses a non-reentrant model
  2227 ;;
  2228                           
  2229                           	psect	text9
  2230  001782                     __ptext9:
  2231                           	opt stack 0
  2232  001782                     _WriteI2C:
  2233                           	opt stack 17
  2234                           
  2235                           ;incstack = 0
  2236                           ;WriteI2C@data_out stored from wreg
  2237  001782  6E2E               	movwf	WriteI2C@data_out,c
  2238                           
  2239                           ;i2c_writ.c: 14: SSPBUF = data_out;
  2240  001784  C02E  FFC9         	movff	WriteI2C@data_out,4041	;volatile
  2241                           
  2242                           ;i2c_writ.c: 15: if ( SSPCON1bits.WCOL )
  2243  001788  AEC6               	btfss	4038,7,c	;volatile
  2244  00178A  D002               	goto	l4485
  2245                           
  2246                           ;i2c_writ.c: 16: return ( -1 );
  2247  00178C  0EFF               	movlw	255
  2248  00178E  0012               	return	
  2249  001790                     l4485:
  2250                           
  2251                           ;i2c_writ.c: 17: else
  2252                           ;i2c_writ.c: 18: {
  2253                           ;i2c_writ.c: 19: if( ((SSPCON1&0x0F)!=0x08) && ((SSPCON1&0x0F)!=0x0B) )
  2254  001790  50C6               	movf	4038,w,c	;volatile
  2255  001792  0B0F               	andlw	15
  2256  001794  0A08               	xorlw	8
  2257  001796  B4D8               	btfsc	status,2,c
  2258  001798  D00F               	goto	l4503
  2259  00179A  50C6               	movf	4038,w,c	;volatile
  2260  00179C  0B0F               	andlw	15
  2261  00179E  0A0B               	xorlw	11
  2262  0017A0  B4D8               	btfsc	status,2,c
  2263  0017A2  D00A               	goto	l4503
  2264                           
  2265                           ;i2c_writ.c: 20: {
  2266                           ;i2c_writ.c: 21: SSPCON1bits.CKP = 1;
  2267  0017A4  88C6               	bsf	4038,4,c	;volatile
  2268  0017A6                     l89:
  2269  0017A6  A69E               	btfss	3998,3,c	;volatile
  2270  0017A8  D7FE               	goto	l89
  2271                           
  2272                           ;i2c_writ.c: 24: if ( ( !SSPSTATbits.R_W ) && ( !SSPSTATbits.BF ) )
  2273  0017AA  A4C7               	btfss	4039,2,c	;volatile
  2274  0017AC  B0C7               	btfsc	4039,0,c	;volatile
  2275  0017AE  D002               	goto	l4499
  2276                           
  2277                           ;i2c_writ.c: 25: {
  2278                           ;i2c_writ.c: 26: return ( -2 );
  2279  0017B0  0EFE               	movlw	254
  2280                           
  2281                           ;i2c_writ.c: 27: }
  2282  0017B2  0012               	return	
  2283  0017B4                     l4499:
  2284                           
  2285                           ;i2c_writ.c: 28: else
  2286                           ;i2c_writ.c: 29: {
  2287                           ;i2c_writ.c: 30: return ( 0 );
  2288  0017B4  0E00               	movlw	0
  2289                           
  2290                           ;i2c_writ.c: 31: }
  2291                           ;i2c_writ.c: 32: }
  2292  0017B6  0012               	return	
  2293  0017B8                     l4503:
  2294                           
  2295                           ;i2c_writ.c: 33: else if( ((SSPCON1&0x0F)==0x08) || ((SSPCON1&0x0F)==0x0B) )
  2296  0017B8  50C6               	movf	4038,w,c	;volatile
  2297  0017BA  0B0F               	andlw	15
  2298  0017BC  0A08               	xorlw	8
  2299  0017BE  B4D8               	btfsc	status,2,c
  2300  0017C0  D005               	goto	l98
  2301  0017C2  50C6               	movf	4038,w,c	;volatile
  2302  0017C4  0B0F               	andlw	15
  2303  0017C6  0A0B               	xorlw	11
  2304  0017C8  A4D8               	btfss	status,2,c
  2305  0017CA  0012               	return	
  2306  0017CC                     l98:
  2307  0017CC  B0C7               	btfsc	4039,0,c	;volatile
  2308  0017CE  D7FE               	goto	l98
  2309                           
  2310                           ;i2c_writ.c: 36: IdleI2C();
  2311  0017D0  ECE4  F00E         	call	_IdleI2C	;wreg free
  2312                           
  2313                           ;i2c_writ.c: 37: if ( SSPCON2bits.ACKSTAT )
  2314  0017D4  ACC5               	btfss	4037,6,c	;volatile
  2315  0017D6  D002               	goto	l4517
  2316                           
  2317                           ;i2c_writ.c: 38: return ( -2 );
  2318  0017D8  0EFE               	movlw	254
  2319  0017DA  0012               	return	
  2320  0017DC                     l4517:
  2321                           
  2322                           ;i2c_writ.c: 39: else return ( 0 );
  2323  0017DC  0E00               	movlw	0
  2324  0017DE  0012               	return	
  2325  0017E0                     __end_of_WriteI2C:
  2326                           	opt stack 0
  2327                           tblptru	equ	0xFF8
  2328                           tblptrh	equ	0xFF7
  2329                           tblptrl	equ	0xFF6
  2330                           tablat	equ	0xFF5
  2331                           prodh	equ	0xFF4
  2332                           prodl	equ	0xFF3
  2333                           intcon	equ	0xFF2
  2334                           postinc0	equ	0xFEE
  2335                           wreg	equ	0xFE8
  2336                           postdec1	equ	0xFE5
  2337                           fsr1l	equ	0xFE1
  2338                           indf2	equ	0xFDF
  2339                           postinc2	equ	0xFDE
  2340                           postdec2	equ	0xFDD
  2341                           fsr2h	equ	0xFDA
  2342                           fsr2l	equ	0xFD9
  2343                           status	equ	0xFD8
  2344                           
  2345 ;; *************** function _IdleI2C *****************
  2346 ;; Defined at:
  2347 ;;		line 24 in file "../../../../../../../../../Desktop/IMU/i2c/i2c_idle.c"
  2348 ;; Parameters:    Size  Location     Type
  2349 ;;		None
  2350 ;; Auto vars:     Size  Location     Type
  2351 ;;		None
  2352 ;; Return value:  Size  Location     Type
  2353 ;;		None               void
  2354 ;; Registers used:
  2355 ;;		wreg, status,2, status,0
  2356 ;; Tracked objects:
  2357 ;;		On entry : 0/0
  2358 ;;		On exit  : 0/0
  2359 ;;		Unchanged: 0/0
  2360 ;; Data sizes:     COMRAM   BANK0   BANK1   BANK2   BANK3   BANK4   BANK5   BANK6   BANK7
  2361 ;;      Params:         0       0       0       0       0       0       0       0       0
  2362 ;;      Locals:         0       0       0       0       0       0       0       0       0
  2363 ;;      Temps:          1       0       0       0       0       0       0       0       0
  2364 ;;      Totals:         1       0       0       0       0       0       0       0       0
  2365 ;;Total ram usage:        1 bytes
  2366 ;; Hardware stack levels used:    1
  2367 ;; Hardware stack levels required when called:   11
  2368 ;; This function calls:
  2369 ;;		Nothing
  2370 ;; This function is called by:
  2371 ;;		_WriteI2C
  2372 ;;		_MPU6050_Init
  2373 ;;		_MPU6050_Read
  2374 ;;		_MPU6050_ReadAccZ
  2375 ;;		_MPU6050_ReadGyroAccX
  2376 ;;		_MPU6050_ReadGyroY
  2377 ;;		_MPU6050_ReadGyroZ
  2378 ;; This function uses a non-reentrant model
  2379 ;;
  2380                           
  2381                           	psect	text10
  2382  001DC8                     __ptext10:
  2383                           	opt stack 0
  2384  001DC8                     _IdleI2C:
  2385                           	opt stack 17
  2386  001DC8                     l4369:
  2387  001DC8  CFC5 F02D          	movff	4037,??_IdleI2C	;volatile
  2388  001DCC  0E1F               	movlw	31
  2389  001DCE  162D               	andwf	??_IdleI2C,f,c
  2390  001DD0  A4D8               	btfss	status,2,c
  2391  001DD2  D7FA               	goto	l4369
  2392  001DD4  A4C7               	btfss	4039,2,c	;volatile
  2393  001DD6  0012               	return	
  2394  001DD8  D7F7               	goto	l4369
  2395  001DDA                     __end_of_IdleI2C:
  2396                           	opt stack 0
  2397                           tblptru	equ	0xFF8
  2398                           tblptrh	equ	0xFF7
  2399                           tblptrl	equ	0xFF6
  2400                           tablat	equ	0xFF5
  2401                           prodh	equ	0xFF4
  2402                           prodl	equ	0xFF3
  2403                           intcon	equ	0xFF2
  2404                           postinc0	equ	0xFEE
  2405                           wreg	equ	0xFE8
  2406                           postdec1	equ	0xFE5
  2407                           fsr1l	equ	0xFE1
  2408                           indf2	equ	0xFDF
  2409                           postinc2	equ	0xFDE
  2410                           postdec2	equ	0xFDD
  2411                           fsr2h	equ	0xFDA
  2412                           fsr2l	equ	0xFD9
  2413                           status	equ	0xFD8
  2414                           
  2415 ;; *************** function _LCDinit *****************
  2416 ;; Defined at:
  2417 ;;		line 261 in file "../src/main.c"
  2418 ;; Parameters:    Size  Location     Type
  2419 ;;		None
  2420 ;; Auto vars:     Size  Location     Type
  2421 ;;		None
  2422 ;; Return value:  Size  Location     Type
  2423 ;;		None               void
  2424 ;; Registers used:
  2425 ;;		wreg, status,2, status,0, cstack
  2426 ;; Tracked objects:
  2427 ;;		On entry : 0/0
  2428 ;;		On exit  : 0/0
  2429 ;;		Unchanged: 0/0
  2430 ;; Data sizes:     COMRAM   BANK0   BANK1   BANK2   BANK3   BANK4   BANK5   BANK6   BANK7
  2431 ;;      Params:         0       0       0       0       0       0       0       0       0
  2432 ;;      Locals:         0       0       0       0       0       0       0       0       0
  2433 ;;      Temps:          1       0       0       0       0       0       0       0       0
  2434 ;;      Totals:         1       0       0       0       0       0       0       0       0
  2435 ;;Total ram usage:        1 bytes
  2436 ;; Hardware stack levels used:    1
  2437 ;; Hardware stack levels required when called:   13
  2438 ;; This function calls:
  2439 ;;		_LCDcmd
  2440 ;;		_LCDnibble
  2441 ;; This function is called by:
  2442 ;;		_main
  2443 ;; This function uses a non-reentrant model
  2444 ;;
  2445                           
  2446                           	psect	text11
  2447  00169E                     __ptext11:
  2448                           	opt stack 0
  2449  00169E                     _LCDinit:
  2450                           	opt stack 17
  2451                           
  2452                           ;main.c: 262: TRISD = 0b00000000;
  2453                           
  2454                           ;incstack = 0
  2455  00169E  0E00               	movlw	0
  2456  0016A0  6E95               	movwf	3989,c	;volatile
  2457                           
  2458                           ;main.c: 266: LATDbits.LATD6 = 0;
  2459  0016A2  9C8C               	bcf	3980,6,c	;volatile
  2460                           
  2461                           ;main.c: 267: LATDbits.LATD7 = 0;
  2462  0016A4  9E8C               	bcf	3980,7,c	;volatile
  2463                           
  2464                           ;main.c: 268: LATDbits.LATD5 = 1;
  2465  0016A6  8A8C               	bsf	3980,5,c	;volatile
  2466                           
  2467                           ;main.c: 271: _delay(1);
  2468  0016A8  F000               	nop	
  2469                           
  2470                           ;main.c: 274: _delay((unsigned long)((16)*(48000000/4000.0)));
  2471  0016AA  0EFA               	movlw	250
  2472  0016AC  6E30               	movwf	??_LCDinit& (0+255),c
  2473  0016AE  0E58               	movlw	88
  2474  0016B0                     u4717:
  2475  0016B0  2EE8               	decfsz	wreg,f,c
  2476  0016B2  D7FE               	goto	u4717
  2477  0016B4  2E30               	decfsz	??_LCDinit& (0+255),f,c
  2478  0016B6  D7FC               	goto	u4717
  2479  0016B8  D000               	nop2	
  2480                           
  2481                           ;main.c: 275: LCDnibble(0x3);
  2482  0016BA  0E03               	movlw	3
  2483  0016BC  EC16  F00E         	call	_LCDnibble
  2484                           
  2485                           ;main.c: 276: _delay((unsigned long)((5)*(48000000/4000.0)));
  2486  0016C0  0E4E               	movlw	78
  2487  0016C2  6E30               	movwf	??_LCDinit& (0+255),c
  2488  0016C4  0EEB               	movlw	235
  2489  0016C6                     u4727:
  2490  0016C6  2EE8               	decfsz	wreg,f,c
  2491  0016C8  D7FE               	goto	u4727
  2492  0016CA  2E30               	decfsz	??_LCDinit& (0+255),f,c
  2493  0016CC  D7FC               	goto	u4727
  2494  0016CE  F000               	nop	
  2495                           
  2496                           ;main.c: 277: LCDnibble(0x3);
  2497  0016D0  0E03               	movlw	3
  2498  0016D2  EC16  F00E         	call	_LCDnibble
  2499                           
  2500                           ;main.c: 278: _delay((unsigned long)((1)*(48000000/4000.0)));
  2501  0016D6  0E10               	movlw	16
  2502  0016D8  6E30               	movwf	??_LCDinit& (0+255),c
  2503  0016DA  0E94               	movlw	148
  2504  0016DC                     u4737:
  2505  0016DC  2EE8               	decfsz	wreg,f,c
  2506  0016DE  D7FE               	goto	u4737
  2507  0016E0  2E30               	decfsz	??_LCDinit& (0+255),f,c
  2508  0016E2  D7FC               	goto	u4737
  2509  0016E4  D000               	nop2	
  2510                           
  2511                           ;main.c: 280: LCDnibble(0x3);
  2512  0016E6  0E03               	movlw	3
  2513  0016E8  EC16  F00E         	call	_LCDnibble
  2514                           
  2515                           ;main.c: 281: _delay((unsigned long)((5)*(48000000/4000.0)));
  2516  0016EC  0E4E               	movlw	78
  2517  0016EE  6E30               	movwf	??_LCDinit& (0+255),c
  2518  0016F0  0EEB               	movlw	235
  2519  0016F2                     u4747:
  2520  0016F2  2EE8               	decfsz	wreg,f,c
  2521  0016F4  D7FE               	goto	u4747
  2522  0016F6  2E30               	decfsz	??_LCDinit& (0+255),f,c
  2523  0016F8  D7FC               	goto	u4747
  2524  0016FA  F000               	nop	
  2525                           
  2526                           ;main.c: 282: LCDnibble(0x2);
  2527  0016FC  0E02               	movlw	2
  2528  0016FE  EC16  F00E         	call	_LCDnibble
  2529                           
  2530                           ;main.c: 285: LCDcmd(0x2C);
  2531  001702  0E2C               	movlw	44
  2532  001704  ECD9  F00E         	call	_LCDcmd
  2533                           
  2534                           ;main.c: 286: LCDcmd(0x0F);
  2535  001708  0E0F               	movlw	15
  2536  00170A  ECD9  F00E         	call	_LCDcmd
  2537  00170E  0012               	return	
  2538  001710                     __end_of_LCDinit:
  2539                           	opt stack 0
  2540                           tblptru	equ	0xFF8
  2541                           tblptrh	equ	0xFF7
  2542                           tblptrl	equ	0xFF6
  2543                           tablat	equ	0xFF5
  2544                           prodh	equ	0xFF4
  2545                           prodl	equ	0xFF3
  2546                           intcon	equ	0xFF2
  2547                           postinc0	equ	0xFEE
  2548                           wreg	equ	0xFE8
  2549                           postdec1	equ	0xFE5
  2550                           fsr1l	equ	0xFE1
  2551                           indf2	equ	0xFDF
  2552                           postinc2	equ	0xFDE
  2553                           postdec2	equ	0xFDD
  2554                           fsr2h	equ	0xFDA
  2555                           fsr2l	equ	0xFD9
  2556                           status	equ	0xFD8
  2557                           
  2558 ;; *************** function _LCDcmd *****************
  2559 ;; Defined at:
  2560 ;;		line 307 in file "../src/main.c"
  2561 ;; Parameters:    Size  Location     Type
  2562 ;;  byte            1    wreg     unsigned char 
  2563 ;; Auto vars:     Size  Location     Type
  2564 ;;  byte            1   46[COMRAM] unsigned char 
  2565 ;; Return value:  Size  Location     Type
  2566 ;;		None               void
  2567 ;; Registers used:
  2568 ;;		wreg, status,2, status,0, cstack
  2569 ;; Tracked objects:
  2570 ;;		On entry : 0/0
  2571 ;;		On exit  : 0/0
  2572 ;;		Unchanged: 0/0
  2573 ;; Data sizes:     COMRAM   BANK0   BANK1   BANK2   BANK3   BANK4   BANK5   BANK6   BANK7
  2574 ;;      Params:         0       0       0       0       0       0       0       0       0
  2575 ;;      Locals:         1       0       0       0       0       0       0       0       0
  2576 ;;      Temps:          0       0       0       0       0       0       0       0       0
  2577 ;;      Totals:         1       0       0       0       0       0       0       0       0
  2578 ;;Total ram usage:        1 bytes
  2579 ;; Hardware stack levels used:    1
  2580 ;; Hardware stack levels required when called:   12
  2581 ;; This function calls:
  2582 ;;		_LCDnibble
  2583 ;; This function is called by:
  2584 ;;		_main
  2585 ;;		_LCDinit
  2586 ;; This function uses a non-reentrant model
  2587 ;;
  2588                           
  2589                           	psect	text12
  2590  001DB2                     __ptext12:
  2591                           	opt stack 0
  2592  001DB2                     _LCDcmd:
  2593                           	opt stack 17
  2594                           
  2595                           ;incstack = 0
  2596                           ;LCDcmd@byte stored from wreg
  2597  001DB2  6E2F               	movwf	LCDcmd@byte,c
  2598                           
  2599                           ;main.c: 309: LATDbits.LATD7 = 0;
  2600  001DB4  9E8C               	bcf	3980,7,c	;volatile
  2601                           
  2602                           ;main.c: 310: LCDnibble(byte >> 4);
  2603  001DB6  382F               	swapf	LCDcmd@byte,w,c
  2604  001DB8  0B0F               	andlw	15
  2605  001DBA  EC16  F00E         	call	_LCDnibble
  2606                           
  2607                           ;main.c: 311: LCDnibble(byte & 0xF);
  2608  001DBE  502F               	movf	LCDcmd@byte,w,c
  2609  001DC0  0B0F               	andlw	15
  2610  001DC2  EC16  F00E         	call	_LCDnibble
  2611  001DC6  0012               	return	
  2612  001DC8                     __end_of_LCDcmd:
  2613                           	opt stack 0
  2614                           tblptru	equ	0xFF8
  2615                           tblptrh	equ	0xFF7
  2616                           tblptrl	equ	0xFF6
  2617                           tablat	equ	0xFF5
  2618                           prodh	equ	0xFF4
  2619                           prodl	equ	0xFF3
  2620                           intcon	equ	0xFF2
  2621                           postinc0	equ	0xFEE
  2622                           wreg	equ	0xFE8
  2623                           postdec1	equ	0xFE5
  2624                           fsr1l	equ	0xFE1
  2625                           indf2	equ	0xFDF
  2626                           postinc2	equ	0xFDE
  2627                           postdec2	equ	0xFDD
  2628                           fsr2h	equ	0xFDA
  2629                           fsr2l	equ	0xFD9
  2630                           status	equ	0xFD8
  2631                           
  2632 ;; *************** function _LCDnibble *****************
  2633 ;; Defined at:
  2634 ;;		line 292 in file "../src/main.c"
  2635 ;; Parameters:    Size  Location     Type
  2636 ;;  nibble          1    wreg     unsigned char 
  2637 ;; Auto vars:     Size  Location     Type
  2638 ;;  nibble          1   45[COMRAM] unsigned char 
  2639 ;; Return value:  Size  Location     Type
  2640 ;;		None               void
  2641 ;; Registers used:
  2642 ;;		wreg, status,2, status,0
  2643 ;; Tracked objects:
  2644 ;;		On entry : 0/0
  2645 ;;		On exit  : 0/0
  2646 ;;		Unchanged: 0/0
  2647 ;; Data sizes:     COMRAM   BANK0   BANK1   BANK2   BANK3   BANK4   BANK5   BANK6   BANK7
  2648 ;;      Params:         0       0       0       0       0       0       0       0       0
  2649 ;;      Locals:         1       0       0       0       0       0       0       0       0
  2650 ;;      Temps:          1       0       0       0       0       0       0       0       0
  2651 ;;      Totals:         2       0       0       0       0       0       0       0       0
  2652 ;;Total ram usage:        2 bytes
  2653 ;; Hardware stack levels used:    1
  2654 ;; Hardware stack levels required when called:   11
  2655 ;; This function calls:
  2656 ;;		Nothing
  2657 ;; This function is called by:
  2658 ;;		_LCDinit
  2659 ;;		_LCDcmd
  2660 ;;		_LCDdata
  2661 ;; This function uses a non-reentrant model
  2662 ;;
  2663                           
  2664                           	psect	text13
  2665  001C2C                     __ptext13:
  2666                           	opt stack 0
  2667  001C2C                     _LCDnibble:
  2668                           	opt stack 18
  2669                           
  2670                           ;incstack = 0
  2671                           ;LCDnibble@nibble stored from wreg
  2672  001C2C  6E2E               	movwf	LCDnibble@nibble,c
  2673                           
  2674                           ;main.c: 295: LATD = (LATD & 0xF0) + nibble;
  2675  001C2E  508C               	movf	3980,w,c	;volatile
  2676  001C30  0BF0               	andlw	240
  2677  001C32  242E               	addwf	LCDnibble@nibble,w,c
  2678  001C34  6E8C               	movwf	3980,c	;volatile
  2679                           
  2680                           ;main.c: 298: LATDbits.LATD5 = 0;
  2681  001C36  9A8C               	bcf	3980,5,c	;volatile
  2682                           
  2683                           ;main.c: 299: _delay((unsigned long)((1.07)*(48000000/4000.0)));
  2684  001C38  0E11               	movlw	17
  2685  001C3A  6E2D               	movwf	??_LCDnibble& (0+255),c
  2686  001C3C  0EAC               	movlw	172
  2687  001C3E                     u4757:
  2688  001C3E  2EE8               	decfsz	wreg,f,c
  2689  001C40  D7FE               	goto	u4757
  2690  001C42  2E2D               	decfsz	??_LCDnibble& (0+255),f,c
  2691  001C44  D7FC               	goto	u4757
  2692                           
  2693                           ;main.c: 300: LATDbits.LATD5 = 1;
  2694  001C46  8A8C               	bsf	3980,5,c	;volatile
  2695                           
  2696                           ;main.c: 301: _delay((unsigned long)((2)*(48000000/4000.0)));
  2697  001C48  0E20               	movlw	32
  2698  001C4A  6E2D               	movwf	??_LCDnibble& (0+255),c
  2699  001C4C  0E2A               	movlw	42
  2700  001C4E                     u4767:
  2701  001C4E  2EE8               	decfsz	wreg,f,c
  2702  001C50  D7FE               	goto	u4767
  2703  001C52  2E2D               	decfsz	??_LCDnibble& (0+255),f,c
  2704  001C54  D7FC               	goto	u4767
  2705  001C56  0012               	return	
  2706  001C58                     __end_of_LCDnibble:
  2707                           	opt stack 0
  2708                           tblptru	equ	0xFF8
  2709                           tblptrh	equ	0xFF7
  2710                           tblptrl	equ	0xFF6
  2711                           tablat	equ	0xFF5
  2712                           prodh	equ	0xFF4
  2713                           prodl	equ	0xFF3
  2714                           intcon	equ	0xFF2
  2715                           postinc0	equ	0xFEE
  2716                           wreg	equ	0xFE8
  2717                           postdec1	equ	0xFE5
  2718                           fsr1l	equ	0xFE1
  2719                           indf2	equ	0xFDF
  2720                           postinc2	equ	0xFDE
  2721                           postdec2	equ	0xFDD
  2722                           fsr2h	equ	0xFDA
  2723                           fsr2l	equ	0xFD9
  2724                           status	equ	0xFD8
  2725                           
  2726 ;; *************** function _APP_DeviceMouseTasks *****************
  2727 ;; Defined at:
  2728 ;;		line 257 in file "../src/app_device_mouse.c"
  2729 ;; Parameters:    Size  Location     Type
  2730 ;;		None
  2731 ;; Auto vars:     Size  Location     Type
  2732 ;;  currentButto    1   45[COMRAM] unsigned char 
  2733 ;; Return value:  Size  Location     Type
  2734 ;;		None               void
  2735 ;; Registers used:
  2736 ;;		wreg, status,2, status,0, cstack
  2737 ;; Tracked objects:
  2738 ;;		On entry : 0/0
  2739 ;;		On exit  : 0/0
  2740 ;;		Unchanged: 0/0
  2741 ;; Data sizes:     COMRAM   BANK0   BANK1   BANK2   BANK3   BANK4   BANK5   BANK6   BANK7
  2742 ;;      Params:         0       0       0       0       0       0       0       0       0
  2743 ;;      Locals:         1       0       0       0       0       0       0       0       0
  2744 ;;      Temps:          0       0       0       0       0       0       0       0       0
  2745 ;;      Totals:         1       0       0       0       0       0       0       0       0
  2746 ;;Total ram usage:        1 bytes
  2747 ;; Hardware stack levels used:    1
  2748 ;; Hardware stack levels required when called:   12
  2749 ;; This function calls:
  2750 ;;		_BUTTON_IsPressed
  2751 ;; This function is called by:
  2752 ;;		_main
  2753 ;; This function uses a non-reentrant model
  2754 ;;
  2755                           
  2756                           	psect	text14
  2757  0019B0                     __ptext14:
  2758                           	opt stack 0
  2759  0019B0                     _APP_DeviceMouseTasks:
  2760                           	opt stack 18
  2761                           
  2762                           ;app_device_mouse.c: 259: bool currentButtonState;
  2763                           ;app_device_mouse.c: 263: currentButtonState = BUTTON_IsPressed(BUTTON_S2);
  2764                           
  2765                           ;incstack = 0
  2766  0019B0  0E01               	movlw	1
  2767  0019B2  EC14  F00D         	call	_BUTTON_IsPressed
  2768  0019B6  6E2E               	movwf	APP_DeviceMouseTasks@currentButtonState,c
  2769                           
  2770                           ;app_device_mouse.c: 268: if(mouse.lastButtonState != currentButtonState)
  2771  0019B8  502E               	movf	APP_DeviceMouseTasks@currentButtonState,w,c
  2772  0019BA  0100               	movlb	0	; () banked
  2773  0019BC  1961               	xorwf	(_mouse+1)& (0+255),w,b
  2774  0019BE  B4D8               	btfsc	status,2,c
  2775  0019C0  0012               	return	
  2776                           
  2777                           ; BSR set to: 0
  2778                           ;app_device_mouse.c: 269: {
  2779                           ;app_device_mouse.c: 270: mouse.lastButtonState = currentButtonState;
  2780  0019C2  C02E  F061         	movff	APP_DeviceMouseTasks@currentButtonState,_mouse+1
  2781                           
  2782                           ; BSR set to: 0
  2783                           ;app_device_mouse.c: 272: if(currentButtonState == 0)
  2784  0019C6  502E               	movf	APP_DeviceMouseTasks@currentButtonState,w,c
  2785  0019C8  A4D8               	btfss	status,2,c
  2786  0019CA  0012               	return	
  2787                           
  2788                           ; BSR set to: 0
  2789                           ;app_device_mouse.c: 273: {
  2790                           ;app_device_mouse.c: 274: mouse.movementMode = !mouse.movementMode;
  2791  0019CC  0100               	movlb	0	; () banked
  2792  0019CE  5165               	movf	(_mouse+5)& (0+255),w,b
  2793  0019D0  A4D8               	btfss	status,2,c
  2794  0019D2  D002               	goto	u4220
  2795  0019D4  0E01               	movlw	1
  2796  0019D6  D001               	goto	u4230
  2797  0019D8                     u4220:
  2798  0019D8  0E00               	movlw	0
  2799  0019DA                     u4230:
  2800  0019DA  0100               	movlb	0	; () banked
  2801  0019DC  6F65               	movwf	(_mouse+5)& (0+255),b
  2802                           
  2803                           ;app_device_mouse.c: 276: mouse.inputReport[0].idleRateSofCount = 0;
  2804  0019DE  0E00               	movlw	0
  2805  0019E0  0100               	movlb	0	; () banked
  2806  0019E2  6F69               	movwf	(_mouse+9)& (0+255),b
  2807                           
  2808                           ;app_device_mouse.c: 277: mouse.sentStop = 0;
  2809  0019E4  0E00               	movlw	0
  2810  0019E6  0100               	movlb	0	; () banked
  2811  0019E8  6F60               	movwf	_mouse& (0+255),b
  2812                           
  2813                           ; BSR set to: 0
  2814  0019EA  0012               	return	
  2815  0019EC                     __end_of_APP_DeviceMouseTasks:
  2816                           	opt stack 0
  2817                           tblptru	equ	0xFF8
  2818                           tblptrh	equ	0xFF7
  2819                           tblptrl	equ	0xFF6
  2820                           tablat	equ	0xFF5
  2821                           prodh	equ	0xFF4
  2822                           prodl	equ	0xFF3
  2823                           intcon	equ	0xFF2
  2824                           postinc0	equ	0xFEE
  2825                           wreg	equ	0xFE8
  2826                           postdec1	equ	0xFE5
  2827                           fsr1l	equ	0xFE1
  2828                           indf2	equ	0xFDF
  2829                           postinc2	equ	0xFDE
  2830                           postdec2	equ	0xFDD
  2831                           fsr2h	equ	0xFDA
  2832                           fsr2l	equ	0xFD9
  2833                           status	equ	0xFD8
  2834                           
  2835 ;; *************** function _BUTTON_IsPressed *****************
  2836 ;; Defined at:
  2837 ;;		line 95 in file "../../../../../../bsp/picdem_fs_usb/buttons.c"
  2838 ;; Parameters:    Size  Location     Type
  2839 ;;  button          1    wreg     enum E4441
  2840 ;; Auto vars:     Size  Location     Type
  2841 ;;  button          1   44[COMRAM] enum E4441
  2842 ;; Return value:  Size  Location     Type
  2843 ;;                  1    wreg      unsigned char 
  2844 ;; Registers used:
  2845 ;;		wreg, status,2, status,0
  2846 ;; Tracked objects:
  2847 ;;		On entry : 0/0
  2848 ;;		On exit  : 0/0
  2849 ;;		Unchanged: 0/0
  2850 ;; Data sizes:     COMRAM   BANK0   BANK1   BANK2   BANK3   BANK4   BANK5   BANK6   BANK7
  2851 ;;      Params:         0       0       0       0       0       0       0       0       0
  2852 ;;      Locals:         1       0       0       0       0       0       0       0       0
  2853 ;;      Temps:          0       0       0       0       0       0       0       0       0
  2854 ;;      Totals:         1       0       0       0       0       0       0       0       0
  2855 ;;Total ram usage:        1 bytes
  2856 ;; Hardware stack levels used:    1
  2857 ;; Hardware stack levels required when called:   11
  2858 ;; This function calls:
  2859 ;;		Nothing
  2860 ;; This function is called by:
  2861 ;;		_APP_DeviceMouseTasks
  2862 ;; This function uses a non-reentrant model
  2863 ;;
  2864                           
  2865                           	psect	text15
  2866  001A28                     __ptext15:
  2867                           	opt stack 0
  2868  001A28                     _BUTTON_IsPressed:
  2869                           	opt stack 18
  2870                           
  2871                           ; BSR set to: 0
  2872                           ;incstack = 0
  2873                           ;BUTTON_IsPressed@button stored from wreg
  2874  001A28  6E2D               	movwf	BUTTON_IsPressed@button,c
  2875                           
  2876                           ;buttons.c: 97: switch(button)
  2877  001A2A  D00E               	goto	l4541
  2878  001A2C                     l559:
  2879                           
  2880                           ;buttons.c: 100: return ( (PORTBbits.RB4 == 0) ? 1 : 0);
  2881  001A2C  B881               	btfsc	3969,4,c	;volatile
  2882  001A2E  D002               	goto	u3770
  2883  001A30  0E01               	movlw	1
  2884  001A32  0012               	return	
  2885  001A34                     u3770:
  2886  001A34  0E00               	movlw	0
  2887  001A36  0012               	return	
  2888  001A38                     l561:
  2889                           
  2890                           ;buttons.c: 103: return ( (PORTBbits.RB5 == 0) ? 1 : 0);
  2891  001A38  BA81               	btfsc	3969,5,c	;volatile
  2892  001A3A  D002               	goto	u3790
  2893  001A3C  0E01               	movlw	1
  2894  001A3E  0012               	return	
  2895  001A40                     u3790:
  2896  001A40  0E00               	movlw	0
  2897  001A42  0012               	return	
  2898  001A44                     l4535:
  2899                           
  2900                           ;buttons.c: 106: return 0;
  2901  001A44  0E00               	movlw	0
  2902  001A46  0012               	return	
  2903  001A48                     l4541:
  2904  001A48  502D               	movf	BUTTON_IsPressed@button,w,c
  2905                           
  2906                           ; Switch size 1, requested type "space"
  2907                           ; Number of cases is 3, Range of values is 0 to 2
  2908                           ; switch strategies available:
  2909                           ; Name         Instructions Cycles
  2910                           ; simple_byte           10     6 (average)
  2911                           ;	Chosen strategy is simple_byte
  2912  001A4A  0A00               	xorlw	0	; case 0
  2913  001A4C  B4D8               	btfsc	status,2,c
  2914  001A4E  D7FA               	goto	l4535
  2915  001A50  0A01               	xorlw	1	; case 1
  2916  001A52  B4D8               	btfsc	status,2,c
  2917  001A54  D7EB               	goto	l559
  2918  001A56  0A03               	xorlw	3	; case 2
  2919  001A58  B4D8               	btfsc	status,2,c
  2920  001A5A  D7EE               	goto	l561
  2921                           
  2922                           ;buttons.c: 109: return 0;
  2923  001A5C  0E00               	movlw	0
  2924  001A5E  0012               	return	
  2925  001A60                     __end_of_BUTTON_IsPressed:
  2926                           	opt stack 0
  2927                           tblptru	equ	0xFF8
  2928                           tblptrh	equ	0xFF7
  2929                           tblptrl	equ	0xFF6
  2930                           tablat	equ	0xFF5
  2931                           prodh	equ	0xFF4
  2932                           prodl	equ	0xFF3
  2933                           intcon	equ	0xFF2
  2934                           postinc0	equ	0xFEE
  2935                           wreg	equ	0xFE8
  2936                           postdec1	equ	0xFE5
  2937                           fsr1l	equ	0xFE1
  2938                           indf2	equ	0xFDF
  2939                           postinc2	equ	0xFDE
  2940                           postdec2	equ	0xFDD
  2941                           fsr2h	equ	0xFDA
  2942                           fsr2l	equ	0xFD9
  2943                           status	equ	0xFD8
  2944                           
  2945 ;; *************** function _SYS_InterruptHigh *****************
  2946 ;; Defined at:
  2947 ;;		line 101 in file "../src/system_config/picdem_fs_usb/system.c"
  2948 ;; Parameters:    Size  Location     Type
  2949 ;;		None
  2950 ;; Auto vars:     Size  Location     Type
  2951 ;;		None
  2952 ;; Return value:  Size  Location     Type
  2953 ;;		None               void
  2954 ;; Registers used:
  2955 ;;		wreg, fsr0l, fsr0h, fsr1l, fsr1h, fsr2l, fsr2h, status,2, status,0, tblptrl, tblptrh, tblptru, prodl, prodh, cstack
  2956 ;; Tracked objects:
  2957 ;;		On entry : 0/0
  2958 ;;		On exit  : 0/0
  2959 ;;		Unchanged: 0/0
  2960 ;; Data sizes:     COMRAM   BANK0   BANK1   BANK2   BANK3   BANK4   BANK5   BANK6   BANK7
  2961 ;;      Params:         0       0       0       0       0       0       0       0       0
  2962 ;;      Locals:         0       0       0       0       0       0       0       0       0
  2963 ;;      Temps:         14       0       0       0       0       0       0       0       0
  2964 ;;      Totals:        14       0       0       0       0       0       0       0       0
  2965 ;;Total ram usage:       14 bytes
  2966 ;; Hardware stack levels used:    1
  2967 ;; Hardware stack levels required when called:   10
  2968 ;; This function calls:
  2969 ;;		_USBDeviceTasks
  2970 ;; This function is called by:
  2971 ;;		Interrupt level 2
  2972 ;; This function uses a non-reentrant model
  2973 ;;
  2974                           
  2975                           	psect	intcode
  2976  000008                     __pintcode:
  2977                           	opt stack 0
  2978  000008                     _SYS_InterruptHigh:
  2979                           	opt stack 17
  2980                           
  2981                           ;incstack = 0
  2982  000008  825E               	bsf	btemp,1,c	;set compiler interrupt flag (level 2)
  2983  00000A  CFFA F01F          	movff	pclath,??_SYS_InterruptHigh
  2984  00000E  CFFB F020          	movff	pclatu,??_SYS_InterruptHigh+1
  2985  000012  ED88  F00B         	call	int_func,f	;refresh shadow registers
  2986                           pclatu	equ	0xFFB
  2987                           pclath	equ	0xFFA
  2988                           tblptru	equ	0xFF8
  2989                           tblptrh	equ	0xFF7
  2990                           tblptrl	equ	0xFF6
  2991                           tablat	equ	0xFF5
  2992                           prodh	equ	0xFF4
  2993                           prodl	equ	0xFF3
  2994                           intcon	equ	0xFF2
  2995                           postinc0	equ	0xFEE
  2996                           wreg	equ	0xFE8
  2997                           postdec1	equ	0xFE5
  2998                           fsr1l	equ	0xFE1
  2999                           indf2	equ	0xFDF
  3000                           postinc2	equ	0xFDE
  3001                           postdec2	equ	0xFDD
  3002                           fsr2h	equ	0xFDA
  3003                           fsr2l	equ	0xFD9
  3004                           status	equ	0xFD8
  3005                           
  3006                           	psect	intcode_body
  3007  001710                     __pintcode_body:
  3008                           	opt stack 17
  3009  001710                     int_func:
  3010                           	opt stack 17
  3011  001710  0006               	pop		; remove dummy address from shadow register refresh
  3012  001712  CFE9 F021          	movff	fsr0l,??_SYS_InterruptHigh+2
  3013  001716  CFEA F022          	movff	fsr0h,??_SYS_InterruptHigh+3
  3014  00171A  CFE1 F023          	movff	fsr1l,??_SYS_InterruptHigh+4
  3015  00171E  CFE2 F024          	movff	fsr1h,??_SYS_InterruptHigh+5
  3016  001722  CFD9 F025          	movff	fsr2l,??_SYS_InterruptHigh+6
  3017  001726  CFDA F026          	movff	fsr2h,??_SYS_InterruptHigh+7
  3018  00172A  CFF3 F027          	movff	prodl,??_SYS_InterruptHigh+8
  3019  00172E  CFF4 F028          	movff	prodh,??_SYS_InterruptHigh+9
  3020  001732  CFF6 F029          	movff	tblptrl,??_SYS_InterruptHigh+10
  3021  001736  CFF7 F02A          	movff	tblptrh,??_SYS_InterruptHigh+11
  3022  00173A  CFF8 F02B          	movff	tblptru,??_SYS_InterruptHigh+12
  3023  00173E  CFF5 F02C          	movff	tablat,??_SYS_InterruptHigh+13
  3024                           
  3025                           ;system.c: 103: USBDeviceTasks();
  3026  001742  ECDA  F003         	call	_USBDeviceTasks	;wreg free
  3027  001746  C02C  FFF5         	movff	??_SYS_InterruptHigh+13,tablat
  3028  00174A  C02B  FFF8         	movff	??_SYS_InterruptHigh+12,tblptru
  3029  00174E  C02A  FFF7         	movff	??_SYS_InterruptHigh+11,tblptrh
  3030  001752  C029  FFF6         	movff	??_SYS_InterruptHigh+10,tblptrl
  3031  001756  C028  FFF4         	movff	??_SYS_InterruptHigh+9,prodh
  3032  00175A  C027  FFF3         	movff	??_SYS_InterruptHigh+8,prodl
  3033  00175E  C026  FFDA         	movff	??_SYS_InterruptHigh+7,fsr2h
  3034  001762  C025  FFD9         	movff	??_SYS_InterruptHigh+6,fsr2l
  3035  001766  C024  FFE2         	movff	??_SYS_InterruptHigh+5,fsr1h
  3036  00176A  C023  FFE1         	movff	??_SYS_InterruptHigh+4,fsr1l
  3037  00176E  C022  FFEA         	movff	??_SYS_InterruptHigh+3,fsr0h
  3038  001772  C021  FFE9         	movff	??_SYS_InterruptHigh+2,fsr0l
  3039  001776  C020  FFFB         	movff	??_SYS_InterruptHigh+1,pclatu
  3040  00177A  C01F  FFFA         	movff	??_SYS_InterruptHigh,pclath
  3041  00177E  925E               	bcf	btemp,1,c	;clear compiler interrupt flag (level 2)
  3042  001780  0011               	retfie		f
  3043  001782                     __end_of_SYS_InterruptHigh:
  3044                           	opt stack 0
  3045                           pclatu	equ	0xFFB
  3046                           pclath	equ	0xFFA
  3047                           tblptru	equ	0xFF8
  3048                           tblptrh	equ	0xFF7
  3049                           tblptrl	equ	0xFF6
  3050                           tablat	equ	0xFF5
  3051                           prodh	equ	0xFF4
  3052                           prodl	equ	0xFF3
  3053                           intcon	equ	0xFF2
  3054                           postinc0	equ	0xFEE
  3055                           fsr0h	equ	0xFEA
  3056                           fsr0l	equ	0xFE9
  3057                           wreg	equ	0xFE8
  3058                           postdec1	equ	0xFE5
  3059                           fsr1h	equ	0xFE2
  3060                           fsr1l	equ	0xFE1
  3061                           indf2	equ	0xFDF
  3062                           postinc2	equ	0xFDE
  3063                           postdec2	equ	0xFDD
  3064                           fsr2h	equ	0xFDA
  3065                           fsr2l	equ	0xFD9
  3066                           status	equ	0xFD8
  3067                           
  3068 ;; *************** function _USBDeviceTasks *****************
  3069 ;; Defined at:
  3070 ;;		line 495 in file "../../../../../../framework/usb/src/usb_device.c"
  3071 ;; Parameters:    Size  Location     Type
  3072 ;;		None
  3073 ;; Auto vars:     Size  Location     Type
  3074 ;;  i               1   29[COMRAM] unsigned char 
  3075 ;; Return value:  Size  Location     Type
  3076 ;;		None               void
  3077 ;; Registers used:
  3078 ;;		wreg, fsr0l, fsr0h, fsr1l, fsr1h, fsr2l, fsr2h, status,2, status,0, tblptrl, tblptrh, tblptru, prodl, prodh, cstack
  3079 ;; Tracked objects:
  3080 ;;		On entry : 0/0
  3081 ;;		On exit  : 0/0
  3082 ;;		Unchanged: 0/0
  3083 ;; Data sizes:     COMRAM   BANK0   BANK1   BANK2   BANK3   BANK4   BANK5   BANK6   BANK7
  3084 ;;      Params:         0       0       0       0       0       0       0       0       0
  3085 ;;      Locals:         1       0       0       0       0       0       0       0       0
  3086 ;;      Temps:          0       0       0       0       0       0       0       0       0
  3087 ;;      Totals:         1       0       0       0       0       0       0       0       0
  3088 ;;Total ram usage:        1 bytes
  3089 ;; Hardware stack levels used:    1
  3090 ;; Hardware stack levels required when called:    9
  3091 ;; This function calls:
  3092 ;;		_USBCtrlEPAllowStatusStage
  3093 ;;		_USBCtrlEPService
  3094 ;;		_USBIncrement1msInternalTimers
  3095 ;;		_USBStallHandler
  3096 ;;		_USBSuspend
  3097 ;;		_USBWakeFromSuspend
  3098 ;;		_USER_USB_CALLBACK_EVENT_HANDLER
  3099 ;;		i2_USBDeviceInit
  3100 ;; This function is called by:
  3101 ;;		_SYS_InterruptHigh
  3102 ;; This function uses a non-reentrant model
  3103 ;;
  3104                           
  3105                           	psect	text17
  3106  0007B4                     __ptext17:
  3107                           	opt stack 0
  3108  0007B4                     _USBDeviceTasks:
  3109                           	opt stack 17
  3110                           
  3111                           ;usb_device.c: 497: uint8_t i;
  3112                           ;usb_device.c: 608: if(USBDeviceState == ATTACHED_STATE)
  3113                           
  3114                           ;incstack = 0
  3115  0007B4  0451               	decf	_USBDeviceState,w,c	;volatile
  3116  0007B6  B4D8               	btfsc	status,2,c
  3117                           
  3118                           ;usb_device.c: 609: {
  3119                           ;usb_device.c: 619: if(!UCONbits.SE0)
  3120  0007B8  BA6D               	btfsc	3949,5,c	;volatile
  3121  0007BA  D006               	goto	i2l4733
  3122                           
  3123                           ;usb_device.c: 620: {
  3124                           ;usb_device.c: 626: {UIR = 0;};
  3125  0007BC  0E00               	movlw	0
  3126  0007BE  6E68               	movwf	3944,c	;volatile
  3127                           
  3128                           ;usb_device.c: 632: UIEbits.URSTIE = 1;
  3129  0007C0  8069               	bsf	3945,0,c	;volatile
  3130                           
  3131                           ;usb_device.c: 633: UIEbits.IDLEIE = 1;
  3132  0007C2  8869               	bsf	3945,4,c	;volatile
  3133                           
  3134                           ;usb_device.c: 634: USBDeviceState = POWERED_STATE;
  3135  0007C4  0E02               	movlw	2
  3136  0007C6  6E51               	movwf	_USBDeviceState,c	;volatile
  3137  0007C8                     i2l4733:
  3138                           
  3139                           ;usb_device.c: 635: }
  3140                           ;usb_device.c: 636: }
  3141                           ;usb_device.c: 652: if(UIRbits.ACTVIF && UIEbits.ACTVIE)
  3142  0007C8  B468               	btfsc	3944,2,c	;volatile
  3143  0007CA  A469               	btfss	3945,2,c	;volatile
  3144  0007CC  D003               	goto	i2l4741
  3145                           
  3146                           ;usb_device.c: 653: {
  3147                           ;usb_device.c: 654: (UIR &= 0xFB);
  3148  0007CE  9468               	bcf	3944,2,c	;volatile
  3149                           
  3150                           ;usb_device.c: 658: USBWakeFromSuspend();
  3151  0007D0  ECB7  F00D         	call	_USBWakeFromSuspend	;wreg free
  3152  0007D4                     i2l4741:
  3153                           
  3154                           ;usb_device.c: 660: }
  3155                           ;usb_device.c: 665: if(UCONbits.SUSPND==1)
  3156  0007D4  A26D               	btfss	3949,1,c	;volatile
  3157  0007D6  D002               	goto	i2l776
  3158                           
  3159                           ;usb_device.c: 666: {
  3160                           ;usb_device.c: 667: {PIR2bits.USBIF = 0;};
  3161  0007D8  9AA1               	bcf	4001,5,c	;volatile
  3162                           
  3163                           ;usb_device.c: 668: return;
  3164  0007DA  0012               	return	
  3165  0007DC                     i2l776:
  3166                           
  3167                           ;usb_device.c: 669: }
  3168                           ;usb_device.c: 681: if(UIRbits.URSTIF && UIEbits.URSTIE)
  3169  0007DC  B068               	btfsc	3944,0,c	;volatile
  3170  0007DE  A069               	btfss	3945,0,c	;volatile
  3171  0007E0  D006               	goto	i2l4755
  3172                           
  3173                           ;usb_device.c: 682: {
  3174                           ;usb_device.c: 683: USBDeviceInit();
  3175  0007E2  ECFE  F001         	call	i2_USBDeviceInit	;wreg free
  3176                           
  3177                           ;usb_device.c: 687: {PIE2bits.USBIE = 1;};
  3178  0007E6  8AA0               	bsf	4000,5,c	;volatile
  3179                           
  3180                           ;usb_device.c: 689: USBDeviceState = DEFAULT_STATE;
  3181  0007E8  0E04               	movlw	4
  3182  0007EA  6E51               	movwf	_USBDeviceState,c	;volatile
  3183                           
  3184                           ;usb_device.c: 699: (UIR &= 0xFE);
  3185  0007EC  9068               	bcf	3944,0,c	;volatile
  3186  0007EE                     i2l4755:
  3187                           
  3188                           ;usb_device.c: 700: }
  3189                           ;usb_device.c: 705: if(UIRbits.IDLEIF && UIEbits.IDLEIE)
  3190  0007EE  B868               	btfsc	3944,4,c	;volatile
  3191  0007F0  A869               	btfss	3945,4,c	;volatile
  3192  0007F2  D002               	goto	i2l4761
  3193                           
  3194                           ;usb_device.c: 706: {
  3195                           ;usb_device.c: 712: USBSuspend();
  3196  0007F4  EC2C  F00E         	call	_USBSuspend	;wreg free
  3197  0007F8                     i2l4761:
  3198                           
  3199                           ;usb_device.c: 714: }
  3200                           ;usb_device.c: 726: if(UIRbits.SOFIF)
  3201  0007F8  AC68               	btfss	3944,6,c	;volatile
  3202  0007FA  D01A               	goto	i2l4779
  3203                           
  3204                           ;usb_device.c: 727: {
  3205                           ;usb_device.c: 729: if(UIEbits.SOFIE)
  3206  0007FC  AC69               	btfss	3945,6,c	;volatile
  3207  0007FE  D00E               	goto	i2l4767
  3208                           
  3209                           ;usb_device.c: 730: {
  3210                           ;usb_device.c: 731: USER_USB_CALLBACK_EVENT_HANDLER(EVENT_SOF,0,1);
  3211  000800  0E00               	movlw	0
  3212  000802  6E10               	movwf	USER_USB_CALLBACK_EVENT_HANDLER@event+1,c
  3213  000804  0E73               	movlw	115
  3214  000806  6E0F               	movwf	USER_USB_CALLBACK_EVENT_HANDLER@event,c
  3215  000808  0E00               	movlw	0
  3216  00080A  6E11               	movwf	USER_USB_CALLBACK_EVENT_HANDLER@pdata,c
  3217  00080C  0E00               	movlw	0
  3218  00080E  6E12               	movwf	USER_USB_CALLBACK_EVENT_HANDLER@pdata+1,c
  3219  000810  0E00               	movlw	0
  3220  000812  6E14               	movwf	USER_USB_CALLBACK_EVENT_HANDLER@size+1,c
  3221  000814  0E01               	movlw	1
  3222  000816  6E13               	movwf	USER_USB_CALLBACK_EVENT_HANDLER@size,c
  3223  000818  EC95  F00A         	call	_USER_USB_CALLBACK_EVENT_HANDLER	;wreg free
  3224  00081C                     i2l4767:
  3225                           
  3226                           ;usb_device.c: 732: }
  3227                           ;usb_device.c: 733: (UIR &= 0xBF);
  3228  00081C  9C68               	bcf	3944,6,c	;volatile
  3229                           
  3230                           ;usb_device.c: 736: USBIncrement1msInternalTimers();
  3231  00081E  ECAD  F00E         	call	_USBIncrement1msInternalTimers	;wreg free
  3232                           
  3233                           ;usb_device.c: 753: if(USBStatusStageTimeoutCounter != 0u)
  3234  000822  5054               	movf	_USBStatusStageTimeoutCounter,w,c	;volatile
  3235  000824  A4D8               	btfss	status,2,c
  3236                           
  3237                           ;usb_device.c: 754: {
  3238                           ;usb_device.c: 755: USBStatusStageTimeoutCounter--;
  3239  000826  0654               	decf	_USBStatusStageTimeoutCounter,f,c	;volatile
  3240                           
  3241                           ;usb_device.c: 756: }
  3242                           ;usb_device.c: 762: if(USBStatusStageTimeoutCounter == 0)
  3243  000828  5054               	movf	_USBStatusStageTimeoutCounter,w,c	;volatile
  3244  00082A  B4D8               	btfsc	status,2,c
  3245                           
  3246                           ;usb_device.c: 763: {
  3247                           ;usb_device.c: 764: USBCtrlEPAllowStatusStage();
  3248  00082C  EC4F  F007         	call	_USBCtrlEPAllowStatusStage	;wreg free
  3249  000830                     i2l4779:
  3250                           
  3251                           ;usb_device.c: 765: }
  3252                           ;usb_device.c: 767: }
  3253                           ;usb_device.c: 769: if(UIRbits.STALLIF && UIEbits.STALLIE)
  3254  000830  BA68               	btfsc	3944,5,c	;volatile
  3255  000832  AA69               	btfss	3945,5,c	;volatile
  3256  000834  D002               	goto	i2l4785
  3257                           
  3258                           ;usb_device.c: 770: {
  3259                           ;usb_device.c: 771: USBStallHandler();
  3260  000836  EC97  F00C         	call	_USBStallHandler	;wreg free
  3261  00083A                     i2l4785:
  3262                           
  3263                           ;usb_device.c: 772: }
  3264                           ;usb_device.c: 774: if(UIRbits.UERRIF && UIEbits.UERRIE)
  3265  00083A  B268               	btfsc	3944,1,c	;volatile
  3266  00083C  A269               	btfss	3945,1,c	;volatile
  3267  00083E  D00F               	goto	i2l4793
  3268                           
  3269                           ;usb_device.c: 775: {
  3270                           ;usb_device.c: 776: USER_USB_CALLBACK_EVENT_HANDLER(EVENT_BUS_ERROR,0,1);
  3271  000840  0E7F               	movlw	127
  3272  000842  6E10               	movwf	USER_USB_CALLBACK_EVENT_HANDLER@event+1,c
  3273  000844  680F               	setf	USER_USB_CALLBACK_EVENT_HANDLER@event,c
  3274  000846  0E00               	movlw	0
  3275  000848  6E11               	movwf	USER_USB_CALLBACK_EVENT_HANDLER@pdata,c
  3276  00084A  0E00               	movlw	0
  3277  00084C  6E12               	movwf	USER_USB_CALLBACK_EVENT_HANDLER@pdata+1,c
  3278  00084E  0E00               	movlw	0
  3279  000850  6E14               	movwf	USER_USB_CALLBACK_EVENT_HANDLER@size+1,c
  3280  000852  0E01               	movlw	1
  3281  000854  6E13               	movwf	USER_USB_CALLBACK_EVENT_HANDLER@size,c
  3282  000856  EC95  F00A         	call	_USER_USB_CALLBACK_EVENT_HANDLER	;wreg free
  3283                           
  3284                           ;usb_device.c: 777: {UEIR = 0;};
  3285  00085A  0E00               	movlw	0
  3286  00085C  6E6A               	movwf	3946,c	;volatile
  3287  00085E                     i2l4793:
  3288                           
  3289                           ;usb_device.c: 785: }
  3290                           ;usb_device.c: 792: if(USBDeviceState < DEFAULT_STATE)
  3291  00085E  0E04               	movlw	4
  3292  000860  6051               	cpfslt	_USBDeviceState,c	;volatile
  3293  000862  D002               	goto	i2l786
  3294                           
  3295                           ;usb_device.c: 793: {
  3296                           ;usb_device.c: 794: {PIR2bits.USBIF = 0;};
  3297  000864  9AA1               	bcf	4001,5,c	;volatile
  3298                           
  3299                           ;usb_device.c: 795: return;
  3300  000866  0012               	return	
  3301  000868                     i2l786:
  3302                           
  3303                           ;usb_device.c: 796: }
  3304                           ;usb_device.c: 801: if(UIEbits.TRNIE)
  3305  000868  A669               	btfss	3945,3,c	;volatile
  3306  00086A  D039               	goto	i2l787
  3307                           
  3308                           ;usb_device.c: 802: {
  3309                           ;usb_device.c: 803: for(i = 0; i < 4u; i++)
  3310  00086C  0E00               	movlw	0
  3311  00086E  6E1E               	movwf	USBDeviceTasks@i,c
  3312  000870                     i2l4799:
  3313  000870  0E03               	movlw	3
  3314  000872  641E               	cpfsgt	USBDeviceTasks@i,c
  3315  000874  D001               	goto	i2l788
  3316  000876  D033               	goto	i2l787
  3317  000878                     i2l788:
  3318                           
  3319                           ;usb_device.c: 804: {
  3320                           ;usb_device.c: 805: if(UIRbits.TRNIF)
  3321  000878  A668               	btfss	3944,3,c	;volatile
  3322  00087A  D031               	goto	i2l787
  3323                           
  3324                           ;usb_device.c: 806: {
  3325                           ;usb_device.c: 808: USTATcopy.Val = USTAT;
  3326  00087C  CF6C F05B          	movff	3948,_USTATcopy	;volatile
  3327                           
  3328                           ;usb_device.c: 809: endpoint_number = USTATcopy.endpoint_number;
  3329  000880  305B               	rrcf	_USTATcopy,w,c	;volatile
  3330  000882  32E8               	rrcf	wreg,f,c
  3331  000884  32E8               	rrcf	wreg,f,c
  3332  000886  0B0F               	andlw	15
  3333  000888  6E57               	movwf	_endpoint_number,c	;volatile
  3334                           
  3335                           ;usb_device.c: 811: (UIR &= 0xF7);
  3336  00088A  9668               	bcf	3944,3,c	;volatile
  3337                           
  3338                           ;usb_device.c: 816: if(USTATcopy.direction == 0)
  3339  00088C  B45B               	btfsc	_USTATcopy,2,c	;volatile
  3340  00088E  D007               	goto	i2l4813
  3341                           
  3342                           ;usb_device.c: 817: {
  3343                           ;usb_device.c: 818: ep_data_out[endpoint_number].bits.ping_pong_state ^= 1;
  3344  000890  5057               	movf	_endpoint_number,w,c	;volatile
  3345  000892  0D01               	mullw	1
  3346  000894  0E91               	movlw	low _ep_data_out
  3347  000896  24F3               	addwf	prodl,w,c
  3348  000898  6ED9               	movwf	fsr2l,c
  3349  00089A  0E00               	movlw	high _ep_data_out
  3350  00089C  D006               	goto	L1
  3351  00089E                     i2l4813:
  3352                           
  3353                           ;usb_device.c: 820: else
  3354                           ;usb_device.c: 821: {
  3355                           ;usb_device.c: 822: ep_data_in[endpoint_number].bits.ping_pong_state ^= 1;
  3356  00089E  5057               	movf	_endpoint_number,w,c	;volatile
  3357  0008A0  0D01               	mullw	1
  3358  0008A2  0E8F               	movlw	low _ep_data_in
  3359  0008A4  24F3               	addwf	prodl,w,c
  3360  0008A6  6ED9               	movwf	fsr2l,c
  3361  0008A8  0E00               	movlw	high _ep_data_in
  3362  0008AA                     L1:
  3363  0008AA  20F4               	addwfc	prodh,w,c
  3364  0008AC  6EDA               	movwf	fsr2h,c
  3365  0008AE  0100               	movlb	0	; () banked
  3366  0008B0  70DF               	btg	indf2,0,c
  3367                           
  3368                           ; BSR set to: 0
  3369                           ;usb_device.c: 823: }
  3370                           ;usb_device.c: 828: if(endpoint_number == 0)
  3371                           
  3372                           ; BSR set to: 0
  3373  0008B2  5057               	movf	_endpoint_number,w,c	;volatile
  3374  0008B4  A4D8               	btfss	status,2,c
  3375  0008B6  D003               	goto	i2l4819
  3376                           
  3377                           ; BSR set to: 0
  3378                           ;usb_device.c: 829: {
  3379                           ;usb_device.c: 830: USBCtrlEPService();
  3380  0008B8  EC06  F00A         	call	_USBCtrlEPService	;wreg free
  3381                           
  3382                           ;usb_device.c: 831: }
  3383  0008BC  D00E               	goto	i2l4821
  3384  0008BE                     i2l4819:
  3385                           
  3386                           ;usb_device.c: 832: else
  3387                           ;usb_device.c: 833: {
  3388                           ;usb_device.c: 834: USER_USB_CALLBACK_EVENT_HANDLER(EVENT_TRANSFER,(uint8_t*)&USTATcopy.
      +                          Val,0);
  3389  0008BE  0E00               	movlw	0
  3390  0008C0  6E10               	movwf	USER_USB_CALLBACK_EVENT_HANDLER@event+1,c
  3391  0008C2  0E72               	movlw	114
  3392  0008C4  6E0F               	movwf	USER_USB_CALLBACK_EVENT_HANDLER@event,c
  3393  0008C6  0E5B               	movlw	low _USTATcopy
  3394  0008C8  6E11               	movwf	USER_USB_CALLBACK_EVENT_HANDLER@pdata,c
  3395  0008CA  0E00               	movlw	high _USTATcopy
  3396  0008CC  6E12               	movwf	USER_USB_CALLBACK_EVENT_HANDLER@pdata+1,c
  3397  0008CE  0E00               	movlw	0
  3398  0008D0  6E14               	movwf	USER_USB_CALLBACK_EVENT_HANDLER@size+1,c
  3399  0008D2  0E00               	movlw	0
  3400  0008D4  6E13               	movwf	USER_USB_CALLBACK_EVENT_HANDLER@size,c
  3401  0008D6  EC95  F00A         	call	_USER_USB_CALLBACK_EVENT_HANDLER	;wreg free
  3402  0008DA                     i2l4821:
  3403  0008DA  2A1E               	incf	USBDeviceTasks@i,f,c
  3404  0008DC  D7C9               	goto	i2l4799
  3405  0008DE                     i2l787:
  3406                           
  3407                           ;usb_device.c: 840: }
  3408                           ;usb_device.c: 841: }
  3409                           ;usb_device.c: 842: }
  3410                           ;usb_device.c: 844: {PIR2bits.USBIF = 0;};
  3411  0008DE  9AA1               	bcf	4001,5,c	;volatile
  3412  0008E0  0012               	return		;funcret
  3413  0008E2                     __end_of_USBDeviceTasks:
  3414                           	opt stack 0
  3415                           pclatu	equ	0xFFB
  3416                           pclath	equ	0xFFA
  3417                           tblptru	equ	0xFF8
  3418                           tblptrh	equ	0xFF7
  3419                           tblptrl	equ	0xFF6
  3420                           tablat	equ	0xFF5
  3421                           prodh	equ	0xFF4
  3422                           prodl	equ	0xFF3
  3423                           intcon	equ	0xFF2
  3424                           postinc0	equ	0xFEE
  3425                           fsr0h	equ	0xFEA
  3426                           fsr0l	equ	0xFE9
  3427                           wreg	equ	0xFE8
  3428                           postdec1	equ	0xFE5
  3429                           fsr1h	equ	0xFE2
  3430                           fsr1l	equ	0xFE1
  3431                           indf2	equ	0xFDF
  3432                           postinc2	equ	0xFDE
  3433                           postdec2	equ	0xFDD
  3434                           fsr2h	equ	0xFDA
  3435                           fsr2l	equ	0xFD9
  3436                           status	equ	0xFD8
  3437                           
  3438 ;; *************** function i2_USBDeviceInit *****************
  3439 ;; Defined at:
  3440 ;;		line 295 in file "../../../../../../framework/usb/src/usb_device.c"
  3441 ;; Parameters:    Size  Location     Type
  3442 ;;		None
  3443 ;; Auto vars:     Size  Location     Type
  3444 ;;  USBDeviceIni    1    8[COMRAM] unsigned char 
  3445 ;; Return value:  Size  Location     Type
  3446 ;;		None               void
  3447 ;; Registers used:
  3448 ;;		wreg, fsr2l, fsr2h, status,2, status,0, prodl, prodh, cstack
  3449 ;; Tracked objects:
  3450 ;;		On entry : 0/0
  3451 ;;		On exit  : 0/0
  3452 ;;		Unchanged: 0/0
  3453 ;; Data sizes:     COMRAM   BANK0   BANK1   BANK2   BANK3   BANK4   BANK5   BANK6   BANK7
  3454 ;;      Params:         0       0       0       0       0       0       0       0       0
  3455 ;;      Locals:         1       0       0       0       0       0       0       0       0
  3456 ;;      Temps:          0       0       0       0       0       0       0       0       0
  3457 ;;      Totals:         1       0       0       0       0       0       0       0       0
  3458 ;;Total ram usage:        1 bytes
  3459 ;; Hardware stack levels used:    1
  3460 ;; Hardware stack levels required when called:    1
  3461 ;; This function calls:
  3462 ;;		i2_memset
  3463 ;; This function is called by:
  3464 ;;		_USBDeviceTasks
  3465 ;; This function uses a non-reentrant model
  3466 ;;
  3467                           
  3468                           	psect	text18
  3469  0003FC                     __ptext18:
  3470                           	opt stack 0
  3471  0003FC                     i2_USBDeviceInit:
  3472                           	opt stack 24
  3473                           
  3474                           ;usb_device.c: 297: uint8_t i;
  3475                           ;usb_device.c: 299: {PIE2bits.USBIE = 0;};
  3476                           
  3477                           ;incstack = 0
  3478  0003FC  9AA0               	bcf	4000,5,c	;volatile
  3479                           
  3480                           ;usb_device.c: 303: ;
  3481                           ;usb_device.c: 306: {UEIR = 0;};
  3482  0003FE  0E00               	movlw	0
  3483  000400  6E6A               	movwf	3946,c	;volatile
  3484                           
  3485                           ;usb_device.c: 309: {UIR = 0;};
  3486  000402  0E00               	movlw	0
  3487  000404  6E68               	movwf	3944,c	;volatile
  3488                           
  3489                           ;usb_device.c: 312: UEP0 = 0;
  3490  000406  0E00               	movlw	0
  3491  000408  6E70               	movwf	3952,c	;volatile
  3492                           
  3493                           ;usb_device.c: 314: memset((void*)&UEP1,0x00,(1));;
  3494  00040A  0E71               	movlw	113
  3495  00040C  6E01               	movwf	i2memset@p1,c
  3496  00040E  0E0F               	movlw	15
  3497  000410  6E02               	movwf	i2memset@p1+1,c
  3498  000412  0E00               	movlw	0
  3499  000414  6E04               	movwf	i2memset@c+1,c
  3500  000416  0E00               	movlw	0
  3501  000418  6E03               	movwf	i2memset@c,c
  3502  00041A  0E00               	movlw	0
  3503  00041C  6E06               	movwf	i2memset@n+1,c
  3504  00041E  0E01               	movlw	1
  3505  000420  6E05               	movwf	i2memset@n,c
  3506  000422  EC42  F00E         	call	i2_memset	;wreg free
  3507                           
  3508                           ;usb_device.c: 316: { UCFG = 0x10 | 0x00 | 0x04 | 0x02; UEIE = 0x9F; UIE = 0x39 | 0x40 |
      +                           0x02; };
  3509  000426  0E16               	movlw	22
  3510  000428  6E6F               	movwf	3951,c	;volatile
  3511  00042A  0E9F               	movlw	159
  3512  00042C  6E6B               	movwf	3947,c	;volatile
  3513  00042E  0E7B               	movlw	123
  3514  000430  6E69               	movwf	3945,c	;volatile
  3515                           
  3516                           ;usb_device.c: 319: ;
  3517                           ;usb_device.c: 322: ;
  3518                           ;usb_device.c: 325: for(i = 0; i < (sizeof(BDT)/sizeof(BDT_ENTRY)); i++)
  3519  000432  0E00               	movlw	0
  3520  000434  6E09               	movwf	i2USBDeviceInit@i,c
  3521  000436                     i2l4645:
  3522  000436  0E07               	movlw	7
  3523  000438  6409               	cpfsgt	i2USBDeviceInit@i,c
  3524  00043A  D001               	goto	i2l4649
  3525  00043C  D00E               	goto	i2l765
  3526  00043E                     i2l4649:
  3527                           
  3528                           ;usb_device.c: 326: {
  3529                           ;usb_device.c: 327: BDT[i].Val = 0x00;
  3530  00043E  5009               	movf	i2USBDeviceInit@i,w,c
  3531  000440  0D04               	mullw	4
  3532  000442  0E00               	movlw	0
  3533  000444  24F3               	addwf	prodl,w,c
  3534  000446  6ED9               	movwf	fsr2l,c
  3535  000448  0E04               	movlw	4
  3536  00044A  20F4               	addwfc	prodh,w,c
  3537  00044C  6EDA               	movwf	fsr2h,c
  3538  00044E  6ADE               	clrf	postinc2,c
  3539  000450  6ADE               	clrf	postinc2,c
  3540  000452  6ADE               	clrf	postinc2,c
  3541  000454  6ADD               	clrf	postdec2,c
  3542  000456  2A09               	incf	i2USBDeviceInit@i,f,c
  3543  000458  D7EE               	goto	i2l4645
  3544  00045A                     i2l765:
  3545                           
  3546                           ;usb_device.c: 328: }
  3547                           ;usb_device.c: 331: UCONbits.PPBRST = 1;
  3548  00045A  8C6D               	bsf	3949,6,c	;volatile
  3549                           
  3550                           ;usb_device.c: 334: UADDR = 0x00;
  3551  00045C  0E00               	movlw	0
  3552  00045E  6E6E               	movwf	3950,c	;volatile
  3553                           
  3554                           ;usb_device.c: 337: UCONbits.PKTDIS = 0;
  3555  000460  986D               	bcf	3949,4,c	;volatile
  3556                           
  3557                           ;usb_device.c: 340: UCONbits.PPBRST = 0;
  3558  000462  9C6D               	bcf	3949,6,c	;volatile
  3559  000464                     i2l4661:
  3560                           
  3561                           ;usb_device.c: 344: {
  3562                           ;usb_device.c: 345: (UIR &= 0xF7);
  3563  000464  9668               	bcf	3944,3,c	;volatile
  3564                           
  3565                           ;usb_device.c: 347: inPipes[0].info.Val = 0;
  3566  000466  0E00               	movlw	0
  3567  000468  0100               	movlb	0	; () banked
  3568  00046A  6F75               	movwf	(_inPipes+3)& (0+255),b	;volatile
  3569                           
  3570                           ; BSR set to: 0
  3571                           ;usb_device.c: 348: outPipes[0].info.Val = 0;
  3572  00046C  0E00               	movlw	0
  3573  00046E  0100               	movlb	0	; () banked
  3574  000470  6F6D               	movwf	(_outPipes+3)& (0+255),b	;volatile
  3575                           
  3576                           ; BSR set to: 0
  3577                           ;usb_device.c: 349: outPipes[0].wCount.Val = 0;
  3578  000472  0E00               	movlw	0
  3579  000474  0100               	movlb	0	; () banked
  3580  000476  6F6F               	movwf	(_outPipes+5)& (0+255),b	;volatile
  3581  000478  0E00               	movlw	0
  3582  00047A  6F6E               	movwf	(_outPipes+4)& (0+255),b	;volatile
  3583                           
  3584                           ; BSR set to: 0
  3585                           ;usb_device.c: 350: }while(UIRbits.TRNIF == 1);
  3586  00047C  B668               	btfsc	3944,3,c	;volatile
  3587  00047E  D7F2               	goto	i2l4661
  3588                           
  3589                           ; BSR set to: 0
  3590                           ;usb_device.c: 354: USBStatusStageEnabledFlag1 = 1;
  3591                           
  3592                           ; BSR set to: 0
  3593  000480  0E01               	movlw	1
  3594  000482  6E52               	movwf	_USBStatusStageEnabledFlag1,c	;volatile
  3595                           
  3596                           ;usb_device.c: 355: USBStatusStageEnabledFlag2 = 1;
  3597  000484  0E01               	movlw	1
  3598  000486  6E53               	movwf	_USBStatusStageEnabledFlag2,c	;volatile
  3599                           
  3600                           ;usb_device.c: 357: USBDeferINDataStagePackets = 0;
  3601  000488  0E00               	movlw	0
  3602  00048A  6E4E               	movwf	_USBDeferINDataStagePackets,c	;volatile
  3603                           
  3604                           ;usb_device.c: 358: USBDeferOUTDataStagePackets = 0;
  3605  00048C  0E00               	movlw	0
  3606  00048E  6E4F               	movwf	_USBDeferOUTDataStagePackets,c	;volatile
  3607                           
  3608                           ;usb_device.c: 359: USBBusIsSuspended = 0;
  3609  000490  0E00               	movlw	0
  3610  000492  6E4D               	movwf	_USBBusIsSuspended,c	;volatile
  3611                           
  3612                           ;usb_device.c: 363: for(i = 0; i < (uint8_t)(1+1u); i++)
  3613  000494  0E00               	movlw	0
  3614  000496  6E09               	movwf	i2USBDeviceInit@i,c
  3615  000498                     i2l4673:
  3616                           
  3617                           ; BSR set to: 0
  3618  000498  0E01               	movlw	1
  3619  00049A  6409               	cpfsgt	i2USBDeviceInit@i,c
  3620  00049C  D001               	goto	i2l4677
  3621  00049E  D02E               	goto	i2l4683
  3622  0004A0                     i2l4677:
  3623                           
  3624                           ;usb_device.c: 364: {
  3625                           ;usb_device.c: 365: pBDTEntryIn[i] = 0u;
  3626  0004A0  5009               	movf	i2USBDeviceInit@i,w,c
  3627  0004A2  0D02               	mullw	2
  3628  0004A4  0E78               	movlw	low _pBDTEntryIn
  3629  0004A6  24F3               	addwf	prodl,w,c
  3630  0004A8  6ED9               	movwf	fsr2l,c
  3631  0004AA  0E00               	movlw	high _pBDTEntryIn
  3632  0004AC  20F4               	addwfc	prodh,w,c
  3633  0004AE  6EDA               	movwf	fsr2h,c
  3634  0004B0  0E00               	movlw	0
  3635  0004B2  6EDE               	movwf	postinc2,c
  3636  0004B4  0E00               	movlw	0
  3637  0004B6  6EDD               	movwf	postdec2,c
  3638                           
  3639                           ;usb_device.c: 366: pBDTEntryOut[i] = 0u;
  3640  0004B8  5009               	movf	i2USBDeviceInit@i,w,c
  3641  0004BA  0D02               	mullw	2
  3642  0004BC  0E7C               	movlw	low _pBDTEntryOut
  3643  0004BE  24F3               	addwf	prodl,w,c
  3644  0004C0  6ED9               	movwf	fsr2l,c
  3645  0004C2  0E00               	movlw	high _pBDTEntryOut
  3646  0004C4  20F4               	addwfc	prodh,w,c
  3647  0004C6  6EDA               	movwf	fsr2h,c
  3648  0004C8  0E00               	movlw	0
  3649  0004CA  6EDE               	movwf	postinc2,c
  3650  0004CC  0E00               	movlw	0
  3651  0004CE  6EDD               	movwf	postdec2,c
  3652                           
  3653                           ;usb_device.c: 367: ep_data_in[i].Val = 0u;
  3654  0004D0  5009               	movf	i2USBDeviceInit@i,w,c
  3655  0004D2  0D01               	mullw	1
  3656  0004D4  0E8F               	movlw	low _ep_data_in
  3657  0004D6  24F3               	addwf	prodl,w,c
  3658  0004D8  6ED9               	movwf	fsr2l,c
  3659  0004DA  0E00               	movlw	high _ep_data_in
  3660  0004DC  20F4               	addwfc	prodh,w,c
  3661  0004DE  6EDA               	movwf	fsr2h,c
  3662  0004E0  0E00               	movlw	0
  3663  0004E2  6EDF               	movwf	indf2,c
  3664                           
  3665                           ;usb_device.c: 368: ep_data_out[i].Val = 0u;
  3666  0004E4  5009               	movf	i2USBDeviceInit@i,w,c
  3667  0004E6  0D01               	mullw	1
  3668  0004E8  0E91               	movlw	low _ep_data_out
  3669  0004EA  24F3               	addwf	prodl,w,c
  3670  0004EC  6ED9               	movwf	fsr2l,c
  3671  0004EE  0E00               	movlw	high _ep_data_out
  3672  0004F0  20F4               	addwfc	prodh,w,c
  3673  0004F2  6EDA               	movwf	fsr2h,c
  3674  0004F4  0E00               	movlw	0
  3675  0004F6  6EDF               	movwf	indf2,c
  3676  0004F8  2A09               	incf	i2USBDeviceInit@i,f,c
  3677  0004FA  D7CE               	goto	i2l4673
  3678  0004FC                     i2l4683:
  3679                           
  3680                           ;usb_device.c: 369: }
  3681                           ;usb_device.c: 372: pBDTEntryIn[0] = (volatile BDT_ENTRY*)&BDT[2];
  3682  0004FC  0E08               	movlw	8
  3683  0004FE  0100               	movlb	0	; () banked
  3684  000500  6F78               	movwf	_pBDTEntryIn& (0+255),b
  3685  000502  0E04               	movlw	4
  3686  000504  0100               	movlb	0	; () banked
  3687  000506  6F79               	movwf	(_pBDTEntryIn+1)& (0+255),b
  3688                           
  3689                           ; BSR set to: 0
  3690                           ;usb_device.c: 374: UEP0 = 0x06|0x10;
  3691  000508  0E16               	movlw	22
  3692  00050A  6E70               	movwf	3952,c	;volatile
  3693                           
  3694                           ; BSR set to: 0
  3695                           ;usb_device.c: 376: BDT[0].ADR = ((uint16_t)(&SetupPkt));
  3696  00050C  0E04               	movlw	4
  3697  00050E  0104               	movlb	4	; () banked
  3698  000510  6F03               	movwf	3,b	;volatile
  3699  000512  0E20               	movlw	32
  3700  000514  6F02               	movwf	2,b	;volatile
  3701                           
  3702                           ; BSR set to: 4
  3703                           ;usb_device.c: 377: BDT[0].CNT = 8;
  3704  000516  0E08               	movlw	8
  3705  000518  0104               	movlb	4	; () banked
  3706  00051A  6F01               	movwf	1,b	;volatile
  3707                           
  3708                           ; BSR set to: 4
  3709                           ;usb_device.c: 378: BDT[0].STAT.Val = 0x00|0x04;
  3710  00051C  0E04               	movlw	4
  3711  00051E  0104               	movlb	4	; () banked
  3712  000520  6F00               	movwf	0,b	;volatile
  3713                           
  3714                           ; BSR set to: 4
  3715                           ;usb_device.c: 379: BDT[0].STAT.Val |= 0x80;
  3716  000522  0104               	movlb	4	; () banked
  3717  000524  8F00               	bsf	0,7,b	;volatile
  3718                           
  3719                           ; BSR set to: 4
  3720                           ;usb_device.c: 382: USBActiveConfiguration = 0;
  3721  000526  0E00               	movlw	0
  3722  000528  6E59               	movwf	_USBActiveConfiguration,c	;volatile
  3723                           
  3724                           ; BSR set to: 4
  3725                           ;usb_device.c: 384: USB1msTickCount = 0;
  3726  00052A  0E00               	movlw	0
  3727  00052C  6E33               	movwf	_USB1msTickCount,c	;volatile
  3728  00052E  0E00               	movlw	0
  3729  000530  6E34               	movwf	_USB1msTickCount+1,c	;volatile
  3730  000532  0E00               	movlw	0
  3731  000534  6E35               	movwf	_USB1msTickCount+2,c	;volatile
  3732  000536  0E00               	movlw	0
  3733  000538  6E36               	movwf	_USB1msTickCount+3,c	;volatile
  3734                           
  3735                           ; BSR set to: 4
  3736                           ;usb_device.c: 385: USBTicksSinceSuspendEnd = 0;
  3737  00053A  0E00               	movlw	0
  3738  00053C  6E55               	movwf	_USBTicksSinceSuspendEnd,c	;volatile
  3739                           
  3740                           ; BSR set to: 4
  3741                           ;usb_device.c: 388: USBDeviceState = DETACHED_STATE;
  3742  00053E  0E00               	movlw	0
  3743  000540  6E51               	movwf	_USBDeviceState,c	;volatile
  3744                           
  3745                           ; BSR set to: 4
  3746  000542  0012               	return		;funcret
  3747  000544                     __end_ofi2_USBDeviceInit:
  3748                           	opt stack 0
  3749                           pclatu	equ	0xFFB
  3750                           pclath	equ	0xFFA
  3751                           tblptru	equ	0xFF8
  3752                           tblptrh	equ	0xFF7
  3753                           tblptrl	equ	0xFF6
  3754                           tablat	equ	0xFF5
  3755                           prodh	equ	0xFF4
  3756                           prodl	equ	0xFF3
  3757                           intcon	equ	0xFF2
  3758                           postinc0	equ	0xFEE
  3759                           fsr0h	equ	0xFEA
  3760                           fsr0l	equ	0xFE9
  3761                           wreg	equ	0xFE8
  3762                           postdec1	equ	0xFE5
  3763                           fsr1h	equ	0xFE2
  3764                           fsr1l	equ	0xFE1
  3765                           indf2	equ	0xFDF
  3766                           postinc2	equ	0xFDE
  3767                           postdec2	equ	0xFDD
  3768                           fsr2h	equ	0xFDA
  3769                           fsr2l	equ	0xFD9
  3770                           status	equ	0xFD8
  3771                           
  3772 ;; *************** function _USBWakeFromSuspend *****************
  3773 ;; Defined at:
  3774 ;;		line 2321 in file "../../../../../../framework/usb/src/usb_device.c"
  3775 ;; Parameters:    Size  Location     Type
  3776 ;;		None
  3777 ;; Auto vars:     Size  Location     Type
  3778 ;;		None
  3779 ;; Return value:  Size  Location     Type
  3780 ;;		None               void
  3781 ;; Registers used:
  3782 ;;		wreg, fsr2l, fsr2h, status,2, status,0, prodl, prodh, cstack
  3783 ;; Tracked objects:
  3784 ;;		On entry : 0/0
  3785 ;;		On exit  : 0/0
  3786 ;;		Unchanged: 0/0
  3787 ;; Data sizes:     COMRAM   BANK0   BANK1   BANK2   BANK3   BANK4   BANK5   BANK6   BANK7
  3788 ;;      Params:         0       0       0       0       0       0       0       0       0
  3789 ;;      Locals:         0       0       0       0       0       0       0       0       0
  3790 ;;      Temps:          0       0       0       0       0       0       0       0       0
  3791 ;;      Totals:         0       0       0       0       0       0       0       0       0
  3792 ;;Total ram usage:        0 bytes
  3793 ;; Hardware stack levels used:    1
  3794 ;; Hardware stack levels required when called:    5
  3795 ;; This function calls:
  3796 ;;		_USER_USB_CALLBACK_EVENT_HANDLER
  3797 ;; This function is called by:
  3798 ;;		_USBDeviceTasks
  3799 ;; This function uses a non-reentrant model
  3800 ;;
  3801                           
  3802                           	psect	text19
  3803  001B6E                     __ptext19:
  3804                           	opt stack 0
  3805  001B6E                     _USBWakeFromSuspend:
  3806                           	opt stack 20
  3807                           
  3808                           ;usb_device.c: 2323: USBBusIsSuspended = 0;
  3809                           
  3810                           ; BSR set to: 4
  3811                           ;incstack = 0
  3812  001B6E  0E00               	movlw	0
  3813  001B70  6E4D               	movwf	_USBBusIsSuspended,c	;volatile
  3814                           
  3815                           ;usb_device.c: 2329: USER_USB_CALLBACK_EVENT_HANDLER(EVENT_RESUME,0,0);
  3816  001B72  0E00               	movlw	0
  3817  001B74  6E10               	movwf	USER_USB_CALLBACK_EVENT_HANDLER@event+1,c
  3818  001B76  0E74               	movlw	116
  3819  001B78  6E0F               	movwf	USER_USB_CALLBACK_EVENT_HANDLER@event,c
  3820  001B7A  0E00               	movlw	0
  3821  001B7C  6E11               	movwf	USER_USB_CALLBACK_EVENT_HANDLER@pdata,c
  3822  001B7E  0E00               	movlw	0
  3823  001B80  6E12               	movwf	USER_USB_CALLBACK_EVENT_HANDLER@pdata+1,c
  3824  001B82  0E00               	movlw	0
  3825  001B84  6E14               	movwf	USER_USB_CALLBACK_EVENT_HANDLER@size+1,c
  3826  001B86  0E00               	movlw	0
  3827  001B88  6E13               	movwf	USER_USB_CALLBACK_EVENT_HANDLER@size,c
  3828  001B8A  EC95  F00A         	call	_USER_USB_CALLBACK_EVENT_HANDLER	;wreg free
  3829                           
  3830                           ;usb_device.c: 2336: UCONbits.SUSPND = 0;
  3831  001B8E  926D               	bcf	3949,1,c	;volatile
  3832                           
  3833                           ;usb_device.c: 2341: UIEbits.ACTVIE = 0;
  3834  001B90  9469               	bcf	3945,2,c	;volatile
  3835                           
  3836                           ;usb_device.c: 2359: while(UIRbits.ACTVIF)
  3837  001B92  D001               	goto	i2l4571
  3838  001B94                     i2l4569:
  3839                           
  3840                           ;usb_device.c: 2361: {
  3841                           ;usb_device.c: 2362: (UIR &= 0xFB);
  3842  001B94  9468               	bcf	3944,2,c	;volatile
  3843  001B96                     i2l4571:
  3844  001B96  B468               	btfsc	3944,2,c	;volatile
  3845  001B98  D7FD               	goto	i2l4569
  3846                           
  3847                           ;usb_device.c: 2363: }
  3848                           ;usb_device.c: 2365: USBTicksSinceSuspendEnd = 0;
  3849  001B9A  0E00               	movlw	0
  3850  001B9C  6E55               	movwf	_USBTicksSinceSuspendEnd,c	;volatile
  3851  001B9E  0012               	return		;funcret
  3852  001BA0                     __end_of_USBWakeFromSuspend:
  3853                           	opt stack 0
  3854                           pclatu	equ	0xFFB
  3855                           pclath	equ	0xFFA
  3856                           tblptru	equ	0xFF8
  3857                           tblptrh	equ	0xFF7
  3858                           tblptrl	equ	0xFF6
  3859                           tablat	equ	0xFF5
  3860                           prodh	equ	0xFF4
  3861                           prodl	equ	0xFF3
  3862                           intcon	equ	0xFF2
  3863                           postinc0	equ	0xFEE
  3864                           fsr0h	equ	0xFEA
  3865                           fsr0l	equ	0xFE9
  3866                           wreg	equ	0xFE8
  3867                           postdec1	equ	0xFE5
  3868                           fsr1h	equ	0xFE2
  3869                           fsr1l	equ	0xFE1
  3870                           indf2	equ	0xFDF
  3871                           postinc2	equ	0xFDE
  3872                           postdec2	equ	0xFDD
  3873                           fsr2h	equ	0xFDA
  3874                           fsr2l	equ	0xFD9
  3875                           status	equ	0xFD8
  3876                           
  3877 ;; *************** function _USBSuspend *****************
  3878 ;; Defined at:
  3879 ;;		line 2263 in file "../../../../../../framework/usb/src/usb_device.c"
  3880 ;; Parameters:    Size  Location     Type
  3881 ;;		None
  3882 ;; Auto vars:     Size  Location     Type
  3883 ;;		None
  3884 ;; Return value:  Size  Location     Type
  3885 ;;		None               void
  3886 ;; Registers used:
  3887 ;;		wreg, fsr2l, fsr2h, status,2, status,0, prodl, prodh, cstack
  3888 ;; Tracked objects:
  3889 ;;		On entry : 0/0
  3890 ;;		On exit  : 0/0
  3891 ;;		Unchanged: 0/0
  3892 ;; Data sizes:     COMRAM   BANK0   BANK1   BANK2   BANK3   BANK4   BANK5   BANK6   BANK7
  3893 ;;      Params:         0       0       0       0       0       0       0       0       0
  3894 ;;      Locals:         0       0       0       0       0       0       0       0       0
  3895 ;;      Temps:          0       0       0       0       0       0       0       0       0
  3896 ;;      Totals:         0       0       0       0       0       0       0       0       0
  3897 ;;Total ram usage:        0 bytes
  3898 ;; Hardware stack levels used:    1
  3899 ;; Hardware stack levels required when called:    5
  3900 ;; This function calls:
  3901 ;;		_USER_USB_CALLBACK_EVENT_HANDLER
  3902 ;; This function is called by:
  3903 ;;		_USBDeviceTasks
  3904 ;; This function uses a non-reentrant model
  3905 ;;
  3906                           
  3907                           	psect	text20
  3908  001C58                     __ptext20:
  3909                           	opt stack 0
  3910  001C58                     _USBSuspend:
  3911                           	opt stack 20
  3912                           
  3913                           ;usb_device.c: 2288: UIEbits.ACTVIE = 1;
  3914                           
  3915                           ;incstack = 0
  3916  001C58  8469               	bsf	3945,2,c	;volatile
  3917                           
  3918                           ;usb_device.c: 2289: (UIR &= 0xEF);
  3919  001C5A  9868               	bcf	3944,4,c	;volatile
  3920                           
  3921                           ;usb_device.c: 2292: UCONbits.SUSPND = 1;
  3922  001C5C  826D               	bsf	3949,1,c	;volatile
  3923                           
  3924                           ;usb_device.c: 2295: USBBusIsSuspended = 1;
  3925  001C5E  0E01               	movlw	1
  3926  001C60  6E4D               	movwf	_USBBusIsSuspended,c	;volatile
  3927                           
  3928                           ;usb_device.c: 2296: USBTicksSinceSuspendEnd = 0;
  3929  001C62  0E00               	movlw	0
  3930  001C64  6E55               	movwf	_USBTicksSinceSuspendEnd,c	;volatile
  3931                           
  3932                           ;usb_device.c: 2303: USER_USB_CALLBACK_EVENT_HANDLER(EVENT_SUSPEND,0,0);
  3933  001C66  0E00               	movlw	0
  3934  001C68  6E10               	movwf	USER_USB_CALLBACK_EVENT_HANDLER@event+1,c
  3935  001C6A  0E75               	movlw	117
  3936  001C6C  6E0F               	movwf	USER_USB_CALLBACK_EVENT_HANDLER@event,c
  3937  001C6E  0E00               	movlw	0
  3938  001C70  6E11               	movwf	USER_USB_CALLBACK_EVENT_HANDLER@pdata,c
  3939  001C72  0E00               	movlw	0
  3940  001C74  6E12               	movwf	USER_USB_CALLBACK_EVENT_HANDLER@pdata+1,c
  3941  001C76  0E00               	movlw	0
  3942  001C78  6E14               	movwf	USER_USB_CALLBACK_EVENT_HANDLER@size+1,c
  3943  001C7A  0E00               	movlw	0
  3944  001C7C  6E13               	movwf	USER_USB_CALLBACK_EVENT_HANDLER@size,c
  3945  001C7E  EC95  F00A         	call	_USER_USB_CALLBACK_EVENT_HANDLER	;wreg free
  3946  001C82  0012               	return		;funcret
  3947  001C84                     __end_of_USBSuspend:
  3948                           	opt stack 0
  3949                           pclatu	equ	0xFFB
  3950                           pclath	equ	0xFFA
  3951                           tblptru	equ	0xFF8
  3952                           tblptrh	equ	0xFF7
  3953                           tblptrl	equ	0xFF6
  3954                           tablat	equ	0xFF5
  3955                           prodh	equ	0xFF4
  3956                           prodl	equ	0xFF3
  3957                           intcon	equ	0xFF2
  3958                           postinc0	equ	0xFEE
  3959                           fsr0h	equ	0xFEA
  3960                           fsr0l	equ	0xFE9
  3961                           wreg	equ	0xFE8
  3962                           postdec1	equ	0xFE5
  3963                           fsr1h	equ	0xFE2
  3964                           fsr1l	equ	0xFE1
  3965                           indf2	equ	0xFDF
  3966                           postinc2	equ	0xFDE
  3967                           postdec2	equ	0xFDD
  3968                           fsr2h	equ	0xFDA
  3969                           fsr2l	equ	0xFD9
  3970                           status	equ	0xFD8
  3971                           
  3972 ;; *************** function _USBStallHandler *****************
  3973 ;; Defined at:
  3974 ;;		line 2220 in file "../../../../../../framework/usb/src/usb_device.c"
  3975 ;; Parameters:    Size  Location     Type
  3976 ;;		None
  3977 ;; Auto vars:     Size  Location     Type
  3978 ;;		None
  3979 ;; Return value:  Size  Location     Type
  3980 ;;		None               void
  3981 ;; Registers used:
  3982 ;;		wreg, fsr2l, fsr2h, status,2, status,0
  3983 ;; Tracked objects:
  3984 ;;		On entry : 0/0
  3985 ;;		On exit  : 0/0
  3986 ;;		Unchanged: 0/0
  3987 ;; Data sizes:     COMRAM   BANK0   BANK1   BANK2   BANK3   BANK4   BANK5   BANK6   BANK7
  3988 ;;      Params:         0       0       0       0       0       0       0       0       0
  3989 ;;      Locals:         0       0       0       0       0       0       0       0       0
  3990 ;;      Temps:          1       0       0       0       0       0       0       0       0
  3991 ;;      Totals:         1       0       0       0       0       0       0       0       0
  3992 ;;Total ram usage:        1 bytes
  3993 ;; Hardware stack levels used:    1
  3994 ;; This function calls:
  3995 ;;		Nothing
  3996 ;; This function is called by:
  3997 ;;		_USBDeviceTasks
  3998 ;; This function uses a non-reentrant model
  3999 ;;
  4000                           
  4001                           	psect	text21
  4002  00192E                     __ptext21:
  4003                           	opt stack 0
  4004  00192E                     _USBStallHandler:
  4005                           	opt stack 25
  4006                           
  4007                           ;usb_device.c: 2232: if(UEP0bits.EPSTALL == 1)
  4008                           
  4009                           ;incstack = 0
  4010  00192E  A070               	btfss	3952,0,c	;volatile
  4011  001930  D01D               	goto	i2l926
  4012                           
  4013                           ;usb_device.c: 2233: {
  4014                           ;usb_device.c: 2235: if((pBDTEntryEP0OutCurrent->STAT.Val == 0x80) && (pBDTEntryIn[0]->S
      +                          TAT.Val == (0x80|0x04)))
  4015  001932  C045  FFD9         	movff	_pBDTEntryEP0OutCurrent,fsr2l
  4016  001936  C046  FFDA         	movff	_pBDTEntryEP0OutCurrent+1,fsr2h
  4017  00193A  0E80               	movlw	128
  4018  00193C  18DE               	xorwf	postinc2,w,c
  4019  00193E  A4D8               	btfss	status,2,c
  4020  001940  D014               	goto	i2l4607
  4021  001942  C078  FFD9         	movff	_pBDTEntryIn,fsr2l
  4022  001946  C079  FFDA         	movff	_pBDTEntryIn+1,fsr2h
  4023  00194A  0E84               	movlw	132
  4024  00194C  18DE               	xorwf	postinc2,w,c
  4025  00194E  A4D8               	btfss	status,2,c
  4026  001950  D00C               	goto	i2l4607
  4027                           
  4028                           ;usb_device.c: 2236: {
  4029                           ;usb_device.c: 2238: pBDTEntryEP0OutCurrent->STAT.Val = 0x00|(0x08 & 0x08)|0x04;
  4030  001952  C045  FFD9         	movff	_pBDTEntryEP0OutCurrent,fsr2l
  4031  001956  C046  FFDA         	movff	_pBDTEntryEP0OutCurrent+1,fsr2h
  4032  00195A  0E0C               	movlw	12
  4033  00195C  6EDF               	movwf	indf2,c
  4034                           
  4035                           ;usb_device.c: 2239: pBDTEntryEP0OutCurrent->STAT.Val |= 0x80;
  4036  00195E  C045  FFD9         	movff	_pBDTEntryEP0OutCurrent,fsr2l
  4037  001962  C046  FFDA         	movff	_pBDTEntryEP0OutCurrent+1,fsr2h
  4038  001966  0E00               	movlw	0
  4039  001968  8EDB               	bsf	plusw2,7,c
  4040  00196A                     i2l4607:
  4041                           
  4042                           ;usb_device.c: 2240: }
  4043                           ;usb_device.c: 2241: UEP0bits.EPSTALL = 0;
  4044  00196A  9070               	bcf	3952,0,c	;volatile
  4045  00196C                     i2l926:
  4046                           
  4047                           ;usb_device.c: 2242: }
  4048                           ;usb_device.c: 2244: (UIR &= 0xDF);
  4049  00196C  9A68               	bcf	3944,5,c	;volatile
  4050  00196E  0012               	return		;funcret
  4051  001970                     __end_of_USBStallHandler:
  4052                           	opt stack 0
  4053                           pclatu	equ	0xFFB
  4054                           pclath	equ	0xFFA
  4055                           tblptru	equ	0xFF8
  4056                           tblptrh	equ	0xFF7
  4057                           tblptrl	equ	0xFF6
  4058                           tablat	equ	0xFF5
  4059                           prodh	equ	0xFF4
  4060                           prodl	equ	0xFF3
  4061                           intcon	equ	0xFF2
  4062                           postinc0	equ	0xFEE
  4063                           fsr0h	equ	0xFEA
  4064                           fsr0l	equ	0xFE9
  4065                           wreg	equ	0xFE8
  4066                           postdec1	equ	0xFE5
  4067                           fsr1h	equ	0xFE2
  4068                           fsr1l	equ	0xFE1
  4069                           indf2	equ	0xFDF
  4070                           postinc2	equ	0xFDE
  4071                           postdec2	equ	0xFDD
  4072                           plusw2	equ	0xFDB
  4073                           fsr2h	equ	0xFDA
  4074                           fsr2l	equ	0xFD9
  4075                           status	equ	0xFD8
  4076                           
  4077 ;; *************** function _USBIncrement1msInternalTimers *****************
  4078 ;; Defined at:
  4079 ;;		line 3042 in file "../../../../../../framework/usb/src/usb_device.c"
  4080 ;; Parameters:    Size  Location     Type
  4081 ;;		None
  4082 ;; Auto vars:     Size  Location     Type
  4083 ;;		None
  4084 ;; Return value:  Size  Location     Type
  4085 ;;		None               void
  4086 ;; Registers used:
  4087 ;;		wreg, status,2, status,0
  4088 ;; Tracked objects:
  4089 ;;		On entry : 0/0
  4090 ;;		On exit  : 0/0
  4091 ;;		Unchanged: 0/0
  4092 ;; Data sizes:     COMRAM   BANK0   BANK1   BANK2   BANK3   BANK4   BANK5   BANK6   BANK7
  4093 ;;      Params:         0       0       0       0       0       0       0       0       0
  4094 ;;      Locals:         0       0       0       0       0       0       0       0       0
  4095 ;;      Temps:          0       0       0       0       0       0       0       0       0
  4096 ;;      Totals:         0       0       0       0       0       0       0       0       0
  4097 ;;Total ram usage:        0 bytes
  4098 ;; Hardware stack levels used:    1
  4099 ;; This function calls:
  4100 ;;		Nothing
  4101 ;; This function is called by:
  4102 ;;		_USBDeviceTasks
  4103 ;; This function uses a non-reentrant model
  4104 ;;
  4105                           
  4106                           	psect	text22
  4107  001D5A                     __ptext22:
  4108                           	opt stack 0
  4109  001D5A                     _USBIncrement1msInternalTimers:
  4110                           	opt stack 25
  4111                           
  4112                           ;usb_device.c: 3050: USB1msTickCount++;
  4113                           
  4114                           ;incstack = 0
  4115  001D5A  0E01               	movlw	1
  4116  001D5C  2633               	addwf	_USB1msTickCount,f,c	;volatile
  4117  001D5E  0E00               	movlw	0
  4118  001D60  2234               	addwfc	_USB1msTickCount+1,f,c	;volatile
  4119  001D62  2235               	addwfc	_USB1msTickCount+2,f,c	;volatile
  4120  001D64  2236               	addwfc	_USB1msTickCount+3,f,c	;volatile
  4121                           
  4122                           ;usb_device.c: 3051: if(USBBusIsSuspended == 0)
  4123  001D66  504D               	movf	_USBBusIsSuspended,w,c	;volatile
  4124  001D68  A4D8               	btfss	status,2,c
  4125  001D6A  0012               	return	
  4126                           
  4127                           ;usb_device.c: 3052: {
  4128                           ;usb_device.c: 3053: USBTicksSinceSuspendEnd++;
  4129  001D6C  2A55               	incf	_USBTicksSinceSuspendEnd,f,c	;volatile
  4130                           
  4131                           ;usb_device.c: 3055: if(USBTicksSinceSuspendEnd == 0)
  4132  001D6E  5055               	movf	_USBTicksSinceSuspendEnd,w,c	;volatile
  4133  001D70  A4D8               	btfss	status,2,c
  4134  001D72  0012               	return	
  4135                           
  4136                           ;usb_device.c: 3056: {
  4137                           ;usb_device.c: 3057: USBTicksSinceSuspendEnd = 255;
  4138  001D74  6855               	setf	_USBTicksSinceSuspendEnd,c	;volatile
  4139  001D76  0012               	return	
  4140  001D78                     __end_of_USBIncrement1msInternalTimers:
  4141                           	opt stack 0
  4142                           pclatu	equ	0xFFB
  4143                           pclath	equ	0xFFA
  4144                           tblptru	equ	0xFF8
  4145                           tblptrh	equ	0xFF7
  4146                           tblptrl	equ	0xFF6
  4147                           tablat	equ	0xFF5
  4148                           prodh	equ	0xFF4
  4149                           prodl	equ	0xFF3
  4150                           intcon	equ	0xFF2
  4151                           postinc0	equ	0xFEE
  4152                           fsr0h	equ	0xFEA
  4153                           fsr0l	equ	0xFE9
  4154                           wreg	equ	0xFE8
  4155                           postdec1	equ	0xFE5
  4156                           fsr1h	equ	0xFE2
  4157                           fsr1l	equ	0xFE1
  4158                           indf2	equ	0xFDF
  4159                           postinc2	equ	0xFDE
  4160                           postdec2	equ	0xFDD
  4161                           plusw2	equ	0xFDB
  4162                           fsr2h	equ	0xFDA
  4163                           fsr2l	equ	0xFD9
  4164                           status	equ	0xFD8
  4165                           
  4166 ;; *************** function _USBCtrlEPService *****************
  4167 ;; Defined at:
  4168 ;;		line 2390 in file "../../../../../../framework/usb/src/usb_device.c"
  4169 ;; Parameters:    Size  Location     Type
  4170 ;;		None
  4171 ;; Auto vars:     Size  Location     Type
  4172 ;;		None
  4173 ;; Return value:  Size  Location     Type
  4174 ;;		None               void
  4175 ;; Registers used:
  4176 ;;		wreg, fsr0l, fsr0h, fsr1l, fsr1h, fsr2l, fsr2h, status,2, status,0, tblptrl, tblptrh, tblptru, prodl, prodh, cstack
  4177 ;; Tracked objects:
  4178 ;;		On entry : 0/0
  4179 ;;		On exit  : 0/0
  4180 ;;		Unchanged: 0/0
  4181 ;; Data sizes:     COMRAM   BANK0   BANK1   BANK2   BANK3   BANK4   BANK5   BANK6   BANK7
  4182 ;;      Params:         0       0       0       0       0       0       0       0       0
  4183 ;;      Locals:         0       0       0       0       0       0       0       0       0
  4184 ;;      Temps:          1       0       0       0       0       0       0       0       0
  4185 ;;      Totals:         1       0       0       0       0       0       0       0       0
  4186 ;;Total ram usage:        1 bytes
  4187 ;; Hardware stack levels used:    1
  4188 ;; Hardware stack levels required when called:    8
  4189 ;; This function calls:
  4190 ;;		_USBCtrlTrfInHandler
  4191 ;;		_USBCtrlTrfOutHandler
  4192 ;;		_USBCtrlTrfSetupHandler
  4193 ;;		_memcpy
  4194 ;; This function is called by:
  4195 ;;		_USBDeviceTasks
  4196 ;; This function uses a non-reentrant model
  4197 ;;
  4198                           
  4199                           	psect	text23
  4200  00140C                     __ptext23:
  4201                           	opt stack 0
  4202  00140C                     _USBCtrlEPService:
  4203                           	opt stack 17
  4204                           
  4205                           ;usb_device.c: 2396: USBStatusStageTimeoutCounter = (uint8_t)45;
  4206                           
  4207                           ;incstack = 0
  4208  00140C  0E2D               	movlw	45
  4209  00140E  6E54               	movwf	_USBStatusStageTimeoutCounter,c	;volatile
  4210                           
  4211                           ;usb_device.c: 2400: if((USTATcopy.Val & ~0x02) == 0x00)
  4212  001410  C05B  F01D         	movff	_USTATcopy,??_USBCtrlEPService	;volatile
  4213  001414  0EFD               	movlw	253
  4214  001416  161D               	andwf	??_USBCtrlEPService,f,c
  4215  001418  A4D8               	btfss	status,2,c
  4216  00141A  D038               	goto	i2l4627
  4217                           
  4218                           ;usb_device.c: 2401: {
  4219                           ;usb_device.c: 2404: pBDTEntryEP0OutCurrent = (volatile BDT_ENTRY*)&BDT[(USTATcopy.Val &
      +                           0x7E)>>1];
  4220  00141C  C05B  F01D         	movff	_USTATcopy,??_USBCtrlEPService	;volatile
  4221  001420  90D8               	bcf	status,0,c
  4222  001422  321D               	rrcf	??_USBCtrlEPService,f,c
  4223  001424  0E3F               	movlw	63
  4224  001426  161D               	andwf	??_USBCtrlEPService,f,c
  4225  001428  501D               	movf	??_USBCtrlEPService,w,c
  4226  00142A  0D04               	mullw	4
  4227  00142C  0E00               	movlw	0
  4228  00142E  24F3               	addwf	prodl,w,c
  4229  001430  6E45               	movwf	_pBDTEntryEP0OutCurrent,c
  4230  001432  0E04               	movlw	4
  4231  001434  20F4               	addwfc	prodh,w,c
  4232  001436  6E46               	movwf	_pBDTEntryEP0OutCurrent+1,c
  4233                           
  4234                           ;usb_device.c: 2412: pBDTEntryEP0OutNext = pBDTEntryEP0OutCurrent;
  4235  001438  C045  F047         	movff	_pBDTEntryEP0OutCurrent,_pBDTEntryEP0OutNext
  4236  00143C  C046  F048         	movff	_pBDTEntryEP0OutCurrent+1,_pBDTEntryEP0OutNext+1
  4237                           
  4238                           ;usb_device.c: 2414: ((uint8_t_VAL*)&pBDTEntryEP0OutNext)->Val ^= 0x0004;
  4239  001440  0E04               	movlw	4
  4240  001442  1A47               	xorwf	_pBDTEntryEP0OutNext,f,c
  4241                           
  4242                           ;usb_device.c: 2417: if(pBDTEntryEP0OutCurrent->STAT.PID == 0xD)
  4243  001444  C045  FFD9         	movff	_pBDTEntryEP0OutCurrent,fsr2l
  4244  001448  C046  FFDA         	movff	_pBDTEntryEP0OutCurrent+1,fsr2h
  4245  00144C  30DF               	rrcf	indf2,w,c
  4246  00144E  32E8               	rrcf	wreg,f,c
  4247  001450  0B0F               	andlw	15
  4248  001452  0A0D               	xorlw	13
  4249  001454  A4D8               	btfss	status,2,c
  4250  001456  D017               	goto	i2l4625
  4251                           
  4252                           ;usb_device.c: 2418: {
  4253                           ;usb_device.c: 2423: memcpy((uint8_t*)&SetupPkt, (uint8_t*)((void *)(pBDTEntryEP0OutCurr
      +                          ent->ADR)), 8);
  4254  001458  0E20               	movlw	32
  4255  00145A  6E01               	movwf	memcpy@d1,c
  4256  00145C  0E04               	movlw	4
  4257  00145E  6E02               	movwf	memcpy@d1+1,c
  4258  001460  EE20 F002          	lfsr	2,2
  4259  001464  5045               	movf	_pBDTEntryEP0OutCurrent,w,c
  4260  001466  26D9               	addwf	fsr2l,f,c
  4261  001468  5046               	movf	_pBDTEntryEP0OutCurrent+1,w,c
  4262  00146A  22DA               	addwfc	fsr2h,f,c
  4263  00146C  CFDE F003          	movff	postinc2,memcpy@s1
  4264  001470  CFDD F004          	movff	postdec2,memcpy@s1+1
  4265  001474  0E00               	movlw	0
  4266  001476  6E06               	movwf	memcpy@n+1,c
  4267  001478  0E08               	movlw	8
  4268  00147A  6E05               	movwf	memcpy@n,c
  4269  00147C  ECB8  F00C         	call	_memcpy	;wreg free
  4270                           
  4271                           ;usb_device.c: 2426: USBCtrlTrfSetupHandler();
  4272  001480  EC4E  F00A         	call	_USBCtrlTrfSetupHandler	;wreg free
  4273                           
  4274                           ;usb_device.c: 2427: }
  4275  001484  0012               	return	
  4276  001486                     i2l4625:
  4277                           
  4278                           ;usb_device.c: 2428: else
  4279                           ;usb_device.c: 2429: {
  4280                           ;usb_device.c: 2431: USBCtrlTrfOutHandler();
  4281  001486  EC1F  F00C         	call	_USBCtrlTrfOutHandler	;wreg free
  4282                           
  4283                           ;usb_device.c: 2432: }
  4284                           ;usb_device.c: 2433: }
  4285  00148A  0012               	return	
  4286  00148C                     i2l4627:
  4287                           
  4288                           ;usb_device.c: 2434: else if((USTATcopy.Val & ~0x02) == 0x04)
  4289  00148C  505B               	movf	_USTATcopy,w,c	;volatile
  4290  00148E  0BFD               	andlw	253
  4291  001490  0A04               	xorlw	4
  4292  001492  A4D8               	btfss	status,2,c
  4293  001494  0012               	return	
  4294                           
  4295                           ;usb_device.c: 2435: {
  4296                           ;usb_device.c: 2438: USBCtrlTrfInHandler();
  4297  001496  ECB1  F007         	call	_USBCtrlTrfInHandler	;wreg free
  4298  00149A  0012               	return	
  4299  00149C                     __end_of_USBCtrlEPService:
  4300                           	opt stack 0
  4301                           pclatu	equ	0xFFB
  4302                           pclath	equ	0xFFA
  4303                           tblptru	equ	0xFF8
  4304                           tblptrh	equ	0xFF7
  4305                           tblptrl	equ	0xFF6
  4306                           tablat	equ	0xFF5
  4307                           prodh	equ	0xFF4
  4308                           prodl	equ	0xFF3
  4309                           intcon	equ	0xFF2
  4310                           postinc0	equ	0xFEE
  4311                           fsr0h	equ	0xFEA
  4312                           fsr0l	equ	0xFE9
  4313                           wreg	equ	0xFE8
  4314                           postdec1	equ	0xFE5
  4315                           fsr1h	equ	0xFE2
  4316                           fsr1l	equ	0xFE1
  4317                           indf2	equ	0xFDF
  4318                           postinc2	equ	0xFDE
  4319                           postdec2	equ	0xFDD
  4320                           plusw2	equ	0xFDB
  4321                           fsr2h	equ	0xFDA
  4322                           fsr2l	equ	0xFD9
  4323                           status	equ	0xFD8
  4324                           
  4325 ;; *************** function _memcpy *****************
  4326 ;; Defined at:
  4327 ;;		line 11 in file "/Applications/microchip/xc8/v1.35/sources/common/memcpy.c"
  4328 ;; Parameters:    Size  Location     Type
  4329 ;;  d1              2    0[COMRAM] PTR void 
  4330 ;;		 -> SetupPkt(8), 
  4331 ;;  s1              2    2[COMRAM] PTR const void 
  4332 ;;		 -> RAM(2047), CtrlTrfData(8), SetupPkt(8), mouseReport(3), 
  4333 ;;  n               2    4[COMRAM] unsigned int 
  4334 ;; Auto vars:     Size  Location     Type
  4335 ;;  s               2    8[COMRAM] PTR const unsigned char 
  4336 ;;		 -> RAM(2047), CtrlTrfData(8), SetupPkt(8), mouseReport(3), 
  4337 ;;  d               2    6[COMRAM] PTR unsigned char 
  4338 ;;		 -> SetupPkt(8), 
  4339 ;; Return value:  Size  Location     Type
  4340 ;;                  2    0[COMRAM] PTR void 
  4341 ;; Registers used:
  4342 ;;		wreg, fsr1l, fsr1h, fsr2l, fsr2h, status,2, status,0
  4343 ;; Tracked objects:
  4344 ;;		On entry : 0/0
  4345 ;;		On exit  : 0/0
  4346 ;;		Unchanged: 0/0
  4347 ;; Data sizes:     COMRAM   BANK0   BANK1   BANK2   BANK3   BANK4   BANK5   BANK6   BANK7
  4348 ;;      Params:         6       0       0       0       0       0       0       0       0
  4349 ;;      Locals:         4       0       0       0       0       0       0       0       0
  4350 ;;      Temps:          0       0       0       0       0       0       0       0       0
  4351 ;;      Totals:        10       0       0       0       0       0       0       0       0
  4352 ;;Total ram usage:       10 bytes
  4353 ;; Hardware stack levels used:    1
  4354 ;; This function calls:
  4355 ;;		Nothing
  4356 ;; This function is called by:
  4357 ;;		_USBCtrlEPService
  4358 ;; This function uses a non-reentrant model
  4359 ;;
  4360                           
  4361                           	psect	text24
  4362  001970                     __ptext24:
  4363                           	opt stack 0
  4364  001970                     _memcpy:
  4365                           	opt stack 24
  4366                           
  4367                           ;incstack = 0
  4368  001970  C003  F009         	movff	memcpy@s1,memcpy@s
  4369  001974  C004  F00A         	movff	memcpy@s1+1,memcpy@s+1
  4370  001978  C001  F007         	movff	memcpy@d1,memcpy@d
  4371  00197C  C002  F008         	movff	memcpy@d1+1,memcpy@d+1
  4372  001980  D00E               	goto	i2l4393
  4373  001982                     i2l4387:
  4374  001982  C009  FFD9         	movff	memcpy@s,fsr2l
  4375  001986  C00A  FFDA         	movff	memcpy@s+1,fsr2h
  4376  00198A  C007  FFE1         	movff	memcpy@d,fsr1l
  4377  00198E  C008  FFE2         	movff	memcpy@d+1,fsr1h
  4378  001992  CFDF FFE7          	movff	indf2,indf1
  4379  001996  4A09               	infsnz	memcpy@s,f,c
  4380  001998  2A0A               	incf	memcpy@s+1,f,c
  4381  00199A  4A07               	infsnz	memcpy@d,f,c
  4382  00199C  2A08               	incf	memcpy@d+1,f,c
  4383  00199E                     i2l4393:
  4384  00199E  0605               	decf	memcpy@n,f,c
  4385  0019A0  A0D8               	btfss	status,0,c
  4386  0019A2  0606               	decf	memcpy@n+1,f,c
  4387  0019A4  2805               	incf	memcpy@n,w,c
  4388  0019A6  E1ED               	bnz	i2l4387
  4389  0019A8  2806               	incf	memcpy@n+1,w,c
  4390  0019AA  B4D8               	btfsc	status,2,c
  4391  0019AC  0012               	return	
  4392  0019AE  D7E9               	goto	i2l4387
  4393  0019B0                     __end_of_memcpy:
  4394                           	opt stack 0
  4395                           pclatu	equ	0xFFB
  4396                           pclath	equ	0xFFA
  4397                           tblptru	equ	0xFF8
  4398                           tblptrh	equ	0xFF7
  4399                           tblptrl	equ	0xFF6
  4400                           tablat	equ	0xFF5
  4401                           prodh	equ	0xFF4
  4402                           prodl	equ	0xFF3
  4403                           intcon	equ	0xFF2
  4404                           postinc0	equ	0xFEE
  4405                           fsr0h	equ	0xFEA
  4406                           fsr0l	equ	0xFE9
  4407                           wreg	equ	0xFE8
  4408                           indf1	equ	0xFE7
  4409                           postdec1	equ	0xFE5
  4410                           fsr1h	equ	0xFE2
  4411                           fsr1l	equ	0xFE1
  4412                           indf2	equ	0xFDF
  4413                           postinc2	equ	0xFDE
  4414                           postdec2	equ	0xFDD
  4415                           plusw2	equ	0xFDB
  4416                           fsr2h	equ	0xFDA
  4417                           fsr2l	equ	0xFD9
  4418                           status	equ	0xFD8
  4419                           
  4420 ;; *************** function _USBCtrlTrfSetupHandler *****************
  4421 ;; Defined at:
  4422 ;;		line 2483 in file "../../../../../../framework/usb/src/usb_device.c"
  4423 ;; Parameters:    Size  Location     Type
  4424 ;;		None
  4425 ;; Auto vars:     Size  Location     Type
  4426 ;;		None
  4427 ;; Return value:  Size  Location     Type
  4428 ;;		None               void
  4429 ;; Registers used:
  4430 ;;		wreg, fsr0l, fsr0h, fsr2l, fsr2h, status,2, status,0, tblptrl, tblptrh, tblptru, prodl, prodh, cstack
  4431 ;; Tracked objects:
  4432 ;;		On entry : 0/0
  4433 ;;		On exit  : 0/0
  4434 ;;		Unchanged: 0/0
  4435 ;; Data sizes:     COMRAM   BANK0   BANK1   BANK2   BANK3   BANK4   BANK5   BANK6   BANK7
  4436 ;;      Params:         0       0       0       0       0       0       0       0       0
  4437 ;;      Locals:         0       0       0       0       0       0       0       0       0
  4438 ;;      Temps:          0       0       0       0       0       0       0       0       0
  4439 ;;      Totals:         0       0       0       0       0       0       0       0       0
  4440 ;;Total ram usage:        0 bytes
  4441 ;; Hardware stack levels used:    1
  4442 ;; Hardware stack levels required when called:    7
  4443 ;; This function calls:
  4444 ;;		_USBCheckStdRequest
  4445 ;;		_USBCtrlEPServiceComplete
  4446 ;;		_USER_USB_CALLBACK_EVENT_HANDLER
  4447 ;; This function is called by:
  4448 ;;		_USBCtrlEPService
  4449 ;; This function uses a non-reentrant model
  4450 ;;
  4451                           
  4452                           	psect	text25
  4453  00149C                     __ptext25:
  4454                           	opt stack 0
  4455  00149C                     _USBCtrlTrfSetupHandler:
  4456                           	opt stack 17
  4457                           
  4458                           ;usb_device.c: 2488: shortPacketStatus = 0;
  4459                           
  4460                           ;incstack = 0
  4461  00149C  0E00               	movlw	0
  4462  00149E  6E58               	movwf	_shortPacketStatus,c	;volatile
  4463                           
  4464                           ;usb_device.c: 2489: USBDeferStatusStagePacket = 0;
  4465  0014A0  0E00               	movlw	0
  4466  0014A2  6E50               	movwf	_USBDeferStatusStagePacket,c	;volatile
  4467                           
  4468                           ;usb_device.c: 2490: USBDeferINDataStagePackets = 0;
  4469  0014A4  0E00               	movlw	0
  4470  0014A6  6E4E               	movwf	_USBDeferINDataStagePackets,c	;volatile
  4471                           
  4472                           ;usb_device.c: 2491: USBDeferOUTDataStagePackets = 0;
  4473  0014A8  0E00               	movlw	0
  4474  0014AA  6E4F               	movwf	_USBDeferOUTDataStagePackets,c	;volatile
  4475                           
  4476                           ;usb_device.c: 2492: BothEP0OutUOWNsSet = 0;
  4477  0014AC  0E00               	movlw	0
  4478  0014AE  6E4B               	movwf	_BothEP0OutUOWNsSet,c	;volatile
  4479                           
  4480                           ;usb_device.c: 2493: controlTransferState = 0;
  4481  0014B0  0E00               	movlw	0
  4482  0014B2  6E56               	movwf	_controlTransferState,c	;volatile
  4483                           
  4484                           ;usb_device.c: 2502: pBDTEntryIn[0]->STAT.Val &= ~(0x80);
  4485  0014B4  C078  FFD9         	movff	_pBDTEntryIn,fsr2l
  4486  0014B8  C079  FFDA         	movff	_pBDTEntryIn+1,fsr2h
  4487  0014BC  0E7F               	movlw	127
  4488  0014BE  16DF               	andwf	indf2,f,c
  4489                           
  4490                           ;usb_device.c: 2503: ((uint8_t_VAL*)&pBDTEntryIn[0])->Val ^= 0x0004;
  4491  0014C0  0E04               	movlw	4
  4492  0014C2  0100               	movlb	0	; () banked
  4493  0014C4  1B78               	xorwf	_pBDTEntryIn& (0+255),f,b
  4494                           
  4495                           ; BSR set to: 0
  4496                           ;usb_device.c: 2504: pBDTEntryIn[0]->STAT.Val &= ~(0x80);
  4497  0014C6  C078  FFD9         	movff	_pBDTEntryIn,fsr2l
  4498  0014CA  C079  FFDA         	movff	_pBDTEntryIn+1,fsr2h
  4499  0014CE  0E7F               	movlw	127
  4500  0014D0  16DF               	andwf	indf2,f,c
  4501                           
  4502                           ; BSR set to: 0
  4503                           ;usb_device.c: 2505: ((uint8_t_VAL*)&pBDTEntryIn[0])->Val ^= 0x0004;
  4504  0014D2  0E04               	movlw	4
  4505  0014D4  0100               	movlb	0	; () banked
  4506  0014D6  1B78               	xorwf	_pBDTEntryIn& (0+255),f,b
  4507                           
  4508                           ; BSR set to: 0
  4509                           ;usb_device.c: 2506: pBDTEntryEP0OutNext->STAT.Val &= ~(0x80);
  4510  0014D8  C047  FFD9         	movff	_pBDTEntryEP0OutNext,fsr2l
  4511  0014DC  C048  FFDA         	movff	_pBDTEntryEP0OutNext+1,fsr2h
  4512  0014E0  0E7F               	movlw	127
  4513  0014E2  16DF               	andwf	indf2,f,c
  4514                           
  4515                           ; BSR set to: 0
  4516                           ;usb_device.c: 2508: inPipes[0].info.Val = 0;
  4517  0014E4  0E00               	movlw	0
  4518  0014E6  0100               	movlb	0	; () banked
  4519  0014E8  6F75               	movwf	(_inPipes+3)& (0+255),b	;volatile
  4520                           
  4521                           ; BSR set to: 0
  4522                           ;usb_device.c: 2509: inPipes[0].wCount.Val = 0;
  4523  0014EA  0E00               	movlw	0
  4524  0014EC  0100               	movlb	0	; () banked
  4525  0014EE  6F77               	movwf	(_inPipes+5)& (0+255),b	;volatile
  4526  0014F0  0E00               	movlw	0
  4527  0014F2  6F76               	movwf	(_inPipes+4)& (0+255),b	;volatile
  4528                           
  4529                           ; BSR set to: 0
  4530                           ;usb_device.c: 2510: outPipes[0].info.Val = 0;
  4531  0014F4  0E00               	movlw	0
  4532  0014F6  0100               	movlb	0	; () banked
  4533  0014F8  6F6D               	movwf	(_outPipes+3)& (0+255),b	;volatile
  4534                           
  4535                           ; BSR set to: 0
  4536                           ;usb_device.c: 2511: outPipes[0].wCount.Val = 0;
  4537  0014FA  0E00               	movlw	0
  4538  0014FC  0100               	movlb	0	; () banked
  4539  0014FE  6F6F               	movwf	(_outPipes+5)& (0+255),b	;volatile
  4540  001500  0E00               	movlw	0
  4541  001502  6F6E               	movwf	(_outPipes+4)& (0+255),b	;volatile
  4542                           
  4543                           ; BSR set to: 0
  4544                           ;usb_device.c: 2517: USBCheckStdRequest();
  4545  001504  ECFB  F005         	call	_USBCheckStdRequest	;wreg free
  4546                           
  4547                           ;usb_device.c: 2518: USER_USB_CALLBACK_EVENT_HANDLER(EVENT_EP0_REQUEST,0,0);
  4548  001508  0E00               	movlw	0
  4549  00150A  6E10               	movwf	USER_USB_CALLBACK_EVENT_HANDLER@event+1,c
  4550  00150C  0E03               	movlw	3
  4551  00150E  6E0F               	movwf	USER_USB_CALLBACK_EVENT_HANDLER@event,c
  4552  001510  0E00               	movlw	0
  4553  001512  6E11               	movwf	USER_USB_CALLBACK_EVENT_HANDLER@pdata,c
  4554  001514  0E00               	movlw	0
  4555  001516  6E12               	movwf	USER_USB_CALLBACK_EVENT_HANDLER@pdata+1,c
  4556  001518  0E00               	movlw	0
  4557  00151A  6E14               	movwf	USER_USB_CALLBACK_EVENT_HANDLER@size+1,c
  4558  00151C  0E00               	movlw	0
  4559  00151E  6E13               	movwf	USER_USB_CALLBACK_EVENT_HANDLER@size,c
  4560  001520  EC95  F00A         	call	_USER_USB_CALLBACK_EVENT_HANDLER	;wreg free
  4561                           
  4562                           ;usb_device.c: 2531: USBCtrlEPServiceComplete();
  4563  001524  EC81  F005         	call	_USBCtrlEPServiceComplete	;wreg free
  4564  001528  0012               	return		;funcret
  4565  00152A                     __end_of_USBCtrlTrfSetupHandler:
  4566                           	opt stack 0
  4567                           pclatu	equ	0xFFB
  4568                           pclath	equ	0xFFA
  4569                           tblptru	equ	0xFF8
  4570                           tblptrh	equ	0xFF7
  4571                           tblptrl	equ	0xFF6
  4572                           tablat	equ	0xFF5
  4573                           prodh	equ	0xFF4
  4574                           prodl	equ	0xFF3
  4575                           intcon	equ	0xFF2
  4576                           postinc0	equ	0xFEE
  4577                           fsr0h	equ	0xFEA
  4578                           fsr0l	equ	0xFE9
  4579                           wreg	equ	0xFE8
  4580                           indf1	equ	0xFE7
  4581                           postdec1	equ	0xFE5
  4582                           fsr1h	equ	0xFE2
  4583                           fsr1l	equ	0xFE1
  4584                           indf2	equ	0xFDF
  4585                           postinc2	equ	0xFDE
  4586                           postdec2	equ	0xFDD
  4587                           plusw2	equ	0xFDB
  4588                           fsr2h	equ	0xFDA
  4589                           fsr2l	equ	0xFD9
  4590                           status	equ	0xFD8
  4591                           
  4592 ;; *************** function _USBCtrlEPServiceComplete *****************
  4593 ;; Defined at:
  4594 ;;		line 1634 in file "../../../../../../framework/usb/src/usb_device.c"
  4595 ;; Parameters:    Size  Location     Type
  4596 ;;		None
  4597 ;; Auto vars:     Size  Location     Type
  4598 ;;		None
  4599 ;; Return value:  Size  Location     Type
  4600 ;;		None               void
  4601 ;; Registers used:
  4602 ;;		wreg, fsr0l, fsr0h, fsr2l, fsr2h, status,2, status,0, tblptrl, tblptrh, tblptru, cstack
  4603 ;; Tracked objects:
  4604 ;;		On entry : 0/0
  4605 ;;		On exit  : 0/0
  4606 ;;		Unchanged: 0/0
  4607 ;; Data sizes:     COMRAM   BANK0   BANK1   BANK2   BANK3   BANK4   BANK5   BANK6   BANK7
  4608 ;;      Params:         0       0       0       0       0       0       0       0       0
  4609 ;;      Locals:         0       0       0       0       0       0       0       0       0
  4610 ;;      Temps:          0       0       0       0       0       0       0       0       0
  4611 ;;      Totals:         0       0       0       0       0       0       0       0       0
  4612 ;;Total ram usage:        0 bytes
  4613 ;; Hardware stack levels used:    1
  4614 ;; Hardware stack levels required when called:    2
  4615 ;; This function calls:
  4616 ;;		_USBCtrlEPAllowDataStage
  4617 ;;		_USBCtrlEPAllowStatusStage
  4618 ;; This function is called by:
  4619 ;;		_USBCtrlTrfSetupHandler
  4620 ;; This function uses a non-reentrant model
  4621 ;;
  4622                           
  4623                           	psect	text26
  4624  000B02                     __ptext26:
  4625                           	opt stack 0
  4626  000B02                     _USBCtrlEPServiceComplete:
  4627                           	opt stack 21
  4628                           
  4629                           ;usb_device.c: 1640: UCONbits.PKTDIS = 0;
  4630                           
  4631                           ;incstack = 0
  4632  000B02  986D               	bcf	3949,4,c	;volatile
  4633                           
  4634                           ;usb_device.c: 1646: if(inPipes[0].info.bits.busy == 0)
  4635  000B04  0100               	movlb	0	; () banked
  4636  000B06  BF75               	btfsc	(_inPipes+3)& (0+255),7,b	;volatile
  4637  000B08  D039               	goto	i2l850
  4638                           
  4639                           ; BSR set to: 0
  4640                           ;usb_device.c: 1647: {
  4641                           ;usb_device.c: 1648: if(outPipes[0].info.bits.busy == 1)
  4642  000B0A  0100               	movlb	0	; () banked
  4643  000B0C  AF6D               	btfss	(_outPipes+3)& (0+255),7,b	;volatile
  4644  000B0E  D00B               	goto	i2l4247
  4645                           
  4646                           ; BSR set to: 0
  4647                           ;usb_device.c: 1649: {
  4648                           ;usb_device.c: 1650: controlTransferState = 2;
  4649  000B10  0E02               	movlw	2
  4650  000B12  6E56               	movwf	_controlTransferState,c	;volatile
  4651                           
  4652                           ;usb_device.c: 1661: if(USBDeferOUTDataStagePackets == 0)
  4653  000B14  504F               	movf	_USBDeferOUTDataStagePackets,w,c	;volatile
  4654  000B16  B4D8               	btfsc	status,2,c
  4655                           
  4656                           ; BSR set to: 0
  4657                           ;usb_device.c: 1662: {
  4658                           ;usb_device.c: 1663: USBCtrlEPAllowDataStage();
  4659  000B18  EC6D  F009         	call	_USBCtrlEPAllowDataStage	;wreg free
  4660                           
  4661                           ;usb_device.c: 1664: }
  4662                           ;usb_device.c: 1668: USBStatusStageEnabledFlag2 = 0;
  4663  000B1C  0E00               	movlw	0
  4664  000B1E  6E53               	movwf	_USBStatusStageEnabledFlag2,c	;volatile
  4665                           
  4666                           ;usb_device.c: 1669: USBStatusStageEnabledFlag1 = 0;
  4667  000B20  0E00               	movlw	0
  4668  000B22  6E52               	movwf	_USBStatusStageEnabledFlag1,c	;volatile
  4669                           
  4670                           ;usb_device.c: 1670: }
  4671  000B24  0012               	return	
  4672  000B26                     i2l4247:
  4673                           
  4674                           ;usb_device.c: 1671: else
  4675                           ;usb_device.c: 1672: {
  4676                           ;usb_device.c: 1677: pBDTEntryEP0OutNext->CNT = 8;
  4677  000B26  EE20 F001          	lfsr	2,1
  4678  000B2A  5047               	movf	_pBDTEntryEP0OutNext,w,c
  4679  000B2C  26D9               	addwf	fsr2l,f,c
  4680  000B2E  5048               	movf	_pBDTEntryEP0OutNext+1,w,c
  4681  000B30  22DA               	addwfc	fsr2h,f,c
  4682  000B32  0E08               	movlw	8
  4683  000B34  6EDF               	movwf	indf2,c
  4684                           
  4685                           ;usb_device.c: 1678: pBDTEntryEP0OutNext->ADR = ((uint16_t)(&SetupPkt));
  4686  000B36  EE20 F002          	lfsr	2,2
  4687  000B3A  5047               	movf	_pBDTEntryEP0OutNext,w,c
  4688  000B3C  26D9               	addwf	fsr2l,f,c
  4689  000B3E  5048               	movf	_pBDTEntryEP0OutNext+1,w,c
  4690  000B40  22DA               	addwfc	fsr2h,f,c
  4691  000B42  0E20               	movlw	32
  4692  000B44  6EDE               	movwf	postinc2,c
  4693  000B46  0E04               	movlw	4
  4694  000B48  6EDD               	movwf	postdec2,c
  4695                           
  4696                           ;usb_device.c: 1679: pBDTEntryEP0OutNext->STAT.Val = 0x00|(0x08 & 0x08)|0x04;
  4697  000B4A  C047  FFD9         	movff	_pBDTEntryEP0OutNext,fsr2l
  4698  000B4E  C048  FFDA         	movff	_pBDTEntryEP0OutNext+1,fsr2h
  4699  000B52  0E0C               	movlw	12
  4700  000B54  6EDF               	movwf	indf2,c
  4701                           
  4702                           ;usb_device.c: 1680: pBDTEntryEP0OutNext->STAT.Val |= 0x80;
  4703  000B56  C047  FFD9         	movff	_pBDTEntryEP0OutNext,fsr2l
  4704  000B5A  C048  FFDA         	movff	_pBDTEntryEP0OutNext+1,fsr2h
  4705  000B5E  0E00               	movlw	0
  4706  000B60  8EDB               	bsf	plusw2,7,c
  4707                           
  4708                           ;usb_device.c: 1681: pBDTEntryIn[0]->STAT.Val = 0x04;
  4709  000B62  C078  FFD9         	movff	_pBDTEntryIn,fsr2l
  4710  000B66  C079  FFDA         	movff	_pBDTEntryIn+1,fsr2h
  4711  000B6A  0E04               	movlw	4
  4712  000B6C  6EDF               	movwf	indf2,c
  4713                           
  4714                           ;usb_device.c: 1682: pBDTEntryIn[0]->STAT.Val |= 0x80;
  4715  000B6E  C078  FFD9         	movff	_pBDTEntryIn,fsr2l
  4716  000B72  C079  FFDA         	movff	_pBDTEntryIn+1,fsr2h
  4717  000B76  0E00               	movlw	0
  4718  000B78  8EDB               	bsf	plusw2,7,c
  4719                           
  4720                           ;usb_device.c: 1683: }
  4721                           ;usb_device.c: 1684: }
  4722  000B7A  0012               	return	
  4723  000B7C                     i2l850:
  4724                           
  4725                           ; BSR set to: 0
  4726                           ;usb_device.c: 1685: else
  4727                           ;usb_device.c: 1686: {
  4728                           ;usb_device.c: 1687: if(SetupPkt.DataDir == (0x80>>7))
  4729  000B7C  0104               	movlb	4	; () banked
  4730  000B7E  AF20               	btfss	32,7,b	;volatile
  4731  000B80  D010               	goto	i2l4267
  4732                           
  4733                           ; BSR set to: 4
  4734                           ;usb_device.c: 1688: {
  4735                           ;usb_device.c: 1689: controlTransferState = 1;
  4736  000B82  0E01               	movlw	1
  4737  000B84  6E56               	movwf	_controlTransferState,c	;volatile
  4738                           
  4739                           ;usb_device.c: 1703: if(USBDeferINDataStagePackets == 0)
  4740  000B86  504E               	movf	_USBDeferINDataStagePackets,w,c	;volatile
  4741  000B88  B4D8               	btfsc	status,2,c
  4742                           
  4743                           ; BSR set to: 4
  4744                           ;usb_device.c: 1704: {
  4745                           ;usb_device.c: 1705: USBCtrlEPAllowDataStage();
  4746  000B8A  EC6D  F009         	call	_USBCtrlEPAllowDataStage	;wreg free
  4747                           
  4748                           ;usb_device.c: 1706: }
  4749                           ;usb_device.c: 1728: USBStatusStageEnabledFlag2 = 0;
  4750  000B8E  0E00               	movlw	0
  4751  000B90  6E53               	movwf	_USBStatusStageEnabledFlag2,c	;volatile
  4752                           
  4753                           ;usb_device.c: 1729: USBStatusStageEnabledFlag1 = 0;
  4754  000B92  0E00               	movlw	0
  4755  000B94  6E52               	movwf	_USBStatusStageEnabledFlag1,c	;volatile
  4756                           
  4757                           ;usb_device.c: 1730: if(USBDeferStatusStagePacket == 0)
  4758  000B96  5050               	movf	_USBDeferStatusStagePacket,w,c	;volatile
  4759  000B98  A4D8               	btfss	status,2,c
  4760  000B9A  0012               	return	
  4761                           
  4762                           ;usb_device.c: 1731: {
  4763                           ;usb_device.c: 1732: USBCtrlEPAllowStatusStage();
  4764  000B9C  EC4F  F007         	call	_USBCtrlEPAllowStatusStage	;wreg free
  4765                           
  4766                           ;usb_device.c: 1733: }
  4767                           ;usb_device.c: 1734: }
  4768  000BA0  0012               	return	
  4769  000BA2                     i2l4267:
  4770                           
  4771                           ;usb_device.c: 1735: else
  4772                           ;usb_device.c: 1736: {
  4773                           ;usb_device.c: 1747: controlTransferState = 2;
  4774  000BA2  0E02               	movlw	2
  4775  000BA4  6E56               	movwf	_controlTransferState,c	;volatile
  4776                           
  4777                           ;usb_device.c: 1750: pBDTEntryEP0OutNext->CNT = 8;
  4778  000BA6  EE20 F001          	lfsr	2,1
  4779  000BAA  5047               	movf	_pBDTEntryEP0OutNext,w,c
  4780  000BAC  26D9               	addwf	fsr2l,f,c
  4781  000BAE  5048               	movf	_pBDTEntryEP0OutNext+1,w,c
  4782  000BB0  22DA               	addwfc	fsr2h,f,c
  4783  000BB2  0E08               	movlw	8
  4784  000BB4  6EDF               	movwf	indf2,c
  4785                           
  4786                           ;usb_device.c: 1751: pBDTEntryEP0OutNext->ADR = ((uint16_t)(&SetupPkt));
  4787  000BB6  EE20 F002          	lfsr	2,2
  4788  000BBA  5047               	movf	_pBDTEntryEP0OutNext,w,c
  4789  000BBC  26D9               	addwf	fsr2l,f,c
  4790  000BBE  5048               	movf	_pBDTEntryEP0OutNext+1,w,c
  4791  000BC0  22DA               	addwfc	fsr2h,f,c
  4792  000BC2  0E20               	movlw	32
  4793  000BC4  6EDE               	movwf	postinc2,c
  4794  000BC6  0E04               	movlw	4
  4795  000BC8  6EDD               	movwf	postdec2,c
  4796                           
  4797                           ;usb_device.c: 1752: pBDTEntryEP0OutNext->STAT.Val = 0x04;
  4798  000BCA  C047  FFD9         	movff	_pBDTEntryEP0OutNext,fsr2l
  4799  000BCE  C048  FFDA         	movff	_pBDTEntryEP0OutNext+1,fsr2h
  4800  000BD2  0E04               	movlw	4
  4801  000BD4  6EDF               	movwf	indf2,c
  4802                           
  4803                           ;usb_device.c: 1753: pBDTEntryEP0OutNext->STAT.Val |= 0x80;
  4804  000BD6  C047  FFD9         	movff	_pBDTEntryEP0OutNext,fsr2l
  4805  000BDA  C048  FFDA         	movff	_pBDTEntryEP0OutNext+1,fsr2h
  4806  000BDE  0E00               	movlw	0
  4807  000BE0  8EDB               	bsf	plusw2,7,c
  4808                           
  4809                           ;usb_device.c: 1756: USBStatusStageEnabledFlag2 = 0;
  4810  000BE2  0E00               	movlw	0
  4811  000BE4  6E53               	movwf	_USBStatusStageEnabledFlag2,c	;volatile
  4812                           
  4813                           ;usb_device.c: 1757: USBStatusStageEnabledFlag1 = 0;
  4814  000BE6  0E00               	movlw	0
  4815  000BE8  6E52               	movwf	_USBStatusStageEnabledFlag1,c	;volatile
  4816                           
  4817                           ;usb_device.c: 1758: if(USBDeferStatusStagePacket == 0)
  4818  000BEA  5050               	movf	_USBDeferStatusStagePacket,w,c	;volatile
  4819  000BEC  A4D8               	btfss	status,2,c
  4820  000BEE  0012               	return	
  4821                           
  4822                           ;usb_device.c: 1759: {
  4823                           ;usb_device.c: 1760: USBCtrlEPAllowStatusStage();
  4824  000BF0  EC4F  F007         	call	_USBCtrlEPAllowStatusStage	;wreg free
  4825  000BF4  0012               	return	
  4826  000BF6                     __end_of_USBCtrlEPServiceComplete:
  4827                           	opt stack 0
  4828                           pclatu	equ	0xFFB
  4829                           pclath	equ	0xFFA
  4830                           tblptru	equ	0xFF8
  4831                           tblptrh	equ	0xFF7
  4832                           tblptrl	equ	0xFF6
  4833                           tablat	equ	0xFF5
  4834                           prodh	equ	0xFF4
  4835                           prodl	equ	0xFF3
  4836                           intcon	equ	0xFF2
  4837                           postinc0	equ	0xFEE
  4838                           fsr0h	equ	0xFEA
  4839                           fsr0l	equ	0xFE9
  4840                           wreg	equ	0xFE8
  4841                           indf1	equ	0xFE7
  4842                           postdec1	equ	0xFE5
  4843                           fsr1h	equ	0xFE2
  4844                           fsr1l	equ	0xFE1
  4845                           indf2	equ	0xFDF
  4846                           postinc2	equ	0xFDE
  4847                           postdec2	equ	0xFDD
  4848                           plusw2	equ	0xFDB
  4849                           fsr2h	equ	0xFDA
  4850                           fsr2l	equ	0xFD9
  4851                           status	equ	0xFD8
  4852                           
  4853 ;; *************** function _USBCtrlEPAllowDataStage *****************
  4854 ;; Defined at:
  4855 ;;		line 1506 in file "../../../../../../framework/usb/src/usb_device.c"
  4856 ;; Parameters:    Size  Location     Type
  4857 ;;		None
  4858 ;; Auto vars:     Size  Location     Type
  4859 ;;		None
  4860 ;; Return value:  Size  Location     Type
  4861 ;;		None               void
  4862 ;; Registers used:
  4863 ;;		wreg, fsr0l, fsr0h, fsr2l, fsr2h, status,2, status,0, tblptrl, tblptrh, tblptru, cstack
  4864 ;; Tracked objects:
  4865 ;;		On entry : 0/0
  4866 ;;		On exit  : 0/0
  4867 ;;		Unchanged: 0/0
  4868 ;; Data sizes:     COMRAM   BANK0   BANK1   BANK2   BANK3   BANK4   BANK5   BANK6   BANK7
  4869 ;;      Params:         0       0       0       0       0       0       0       0       0
  4870 ;;      Locals:         0       0       0       0       0       0       0       0       0
  4871 ;;      Temps:          0       0       0       0       0       0       0       0       0
  4872 ;;      Totals:         0       0       0       0       0       0       0       0       0
  4873 ;;Total ram usage:        0 bytes
  4874 ;; Hardware stack levels used:    1
  4875 ;; Hardware stack levels required when called:    1
  4876 ;; This function calls:
  4877 ;;		_USBCtrlTrfTxService
  4878 ;; This function is called by:
  4879 ;;		_USBCtrlEPServiceComplete
  4880 ;; This function uses a non-reentrant model
  4881 ;;
  4882                           
  4883                           	psect	text27
  4884  0012DA                     __ptext27:
  4885                           	opt stack 0
  4886  0012DA                     _USBCtrlEPAllowDataStage:
  4887                           	opt stack 21
  4888                           
  4889                           ;usb_device.c: 1508: USBDeferINDataStagePackets = 0;
  4890                           
  4891                           ;incstack = 0
  4892  0012DA  0E00               	movlw	0
  4893  0012DC  6E4E               	movwf	_USBDeferINDataStagePackets,c	;volatile
  4894                           
  4895                           ;usb_device.c: 1509: USBDeferOUTDataStagePackets = 0;
  4896  0012DE  0E00               	movlw	0
  4897  0012E0  6E4F               	movwf	_USBDeferOUTDataStagePackets,c	;volatile
  4898                           
  4899                           ;usb_device.c: 1511: if(controlTransferState == 2)
  4900  0012E2  0E02               	movlw	2
  4901  0012E4  1856               	xorwf	_controlTransferState,w,c	;volatile
  4902  0012E6  A4D8               	btfss	status,2,c
  4903  0012E8  D01F               	goto	i2l4041
  4904                           
  4905                           ;usb_device.c: 1512: {
  4906                           ;usb_device.c: 1514: pBDTEntryEP0OutNext->CNT = 8;
  4907  0012EA  EE20 F001          	lfsr	2,1
  4908  0012EE  5047               	movf	_pBDTEntryEP0OutNext,w,c
  4909  0012F0  26D9               	addwf	fsr2l,f,c
  4910  0012F2  5048               	movf	_pBDTEntryEP0OutNext+1,w,c
  4911  0012F4  22DA               	addwfc	fsr2h,f,c
  4912  0012F6  0E08               	movlw	8
  4913  0012F8  6EDF               	movwf	indf2,c
  4914                           
  4915                           ;usb_device.c: 1515: pBDTEntryEP0OutNext->ADR = ((uint16_t)(&CtrlTrfData));
  4916  0012FA  EE20 F002          	lfsr	2,2
  4917  0012FE  5047               	movf	_pBDTEntryEP0OutNext,w,c
  4918  001300  26D9               	addwf	fsr2l,f,c
  4919  001302  5048               	movf	_pBDTEntryEP0OutNext+1,w,c
  4920  001304  22DA               	addwfc	fsr2h,f,c
  4921  001306  0E28               	movlw	40
  4922  001308  6EDE               	movwf	postinc2,c
  4923  00130A  0E04               	movlw	4
  4924  00130C  6EDD               	movwf	postdec2,c
  4925                           
  4926                           ;usb_device.c: 1516: pBDTEntryEP0OutNext->STAT.Val = 0x40|(0x08 & 0x08);
  4927  00130E  C047  FFD9         	movff	_pBDTEntryEP0OutNext,fsr2l
  4928  001312  C048  FFDA         	movff	_pBDTEntryEP0OutNext+1,fsr2h
  4929  001316  0E48               	movlw	72
  4930  001318  6EDF               	movwf	indf2,c
  4931                           
  4932                           ;usb_device.c: 1517: pBDTEntryEP0OutNext->STAT.Val |= 0x80;
  4933  00131A  C047  FFD9         	movff	_pBDTEntryEP0OutNext,fsr2l
  4934  00131E  C048  FFDA         	movff	_pBDTEntryEP0OutNext+1,fsr2h
  4935  001322  0E00               	movlw	0
  4936  001324  8EDB               	bsf	plusw2,7,c
  4937                           
  4938                           ;usb_device.c: 1518: }
  4939  001326  0012               	return	
  4940  001328                     i2l4041:
  4941                           
  4942                           ;usb_device.c: 1519: else
  4943                           ;usb_device.c: 1520: {
  4944                           ;usb_device.c: 1523: if(SetupPkt.wLength < inPipes[0].wCount.Val)
  4945  001328  0100               	movlb	0	; () banked
  4946  00132A  5176               	movf	(_inPipes+4)& (0+255),w,b	;volatile
  4947  00132C  0104               	movlb	4	; () banked
  4948  00132E  5D26               	subwf	38,w,b	;volatile
  4949  001330  0100               	movlb	0	; () banked
  4950  001332  5177               	movf	(_inPipes+5)& (0+255),w,b	;volatile
  4951  001334  0104               	movlb	4	; () banked
  4952  001336  5927               	subwfb	39,w,b	;volatile
  4953  001338  B0D8               	btfsc	status,0,c
  4954  00133A  D004               	goto	i2l4045
  4955                           
  4956                           ; BSR set to: 4
  4957                           ;usb_device.c: 1524: {
  4958                           ;usb_device.c: 1525: inPipes[0].wCount.Val = SetupPkt.wLength;
  4959  00133C  C426 F076          	movff	1062,_inPipes+4	;volatile
  4960  001340  C427 F077          	movff	1063,_inPipes+5	;volatile
  4961  001344                     i2l4045:
  4962                           
  4963                           ; BSR set to: 4
  4964                           ;usb_device.c: 1526: }
  4965                           ;usb_device.c: 1527: USBCtrlTrfTxService();
  4966  001344  ECE5  F006         	call	_USBCtrlTrfTxService	;wreg free
  4967                           
  4968                           ;usb_device.c: 1532: pBDTEntryIn[0]->ADR = ((uint16_t)(&CtrlTrfData));
  4969  001348  0100               	movlb	0	; () banked
  4970  00134A  EE20 F002          	lfsr	2,2
  4971  00134E  5178               	movf	_pBDTEntryIn& (0+255),w,b
  4972  001350  26D9               	addwf	fsr2l,f,c
  4973  001352  5179               	movf	(_pBDTEntryIn+1)& (0+255),w,b
  4974  001354  22DA               	addwfc	fsr2h,f,c
  4975  001356  0E28               	movlw	40
  4976  001358  6EDE               	movwf	postinc2,c
  4977  00135A  0E04               	movlw	4
  4978  00135C  6EDD               	movwf	postdec2,c
  4979                           
  4980                           ; BSR set to: 0
  4981                           ;usb_device.c: 1533: pBDTEntryIn[0]->STAT.Val = 0x40|(0x08 & 0x08);
  4982  00135E  C078  FFD9         	movff	_pBDTEntryIn,fsr2l
  4983  001362  C079  FFDA         	movff	_pBDTEntryIn+1,fsr2h
  4984  001366  0E48               	movlw	72
  4985  001368  6EDF               	movwf	indf2,c
  4986                           
  4987                           ; BSR set to: 0
  4988                           ;usb_device.c: 1534: pBDTEntryIn[0]->STAT.Val |= 0x80;
  4989  00136A  C078  FFD9         	movff	_pBDTEntryIn,fsr2l
  4990  00136E  C079  FFDA         	movff	_pBDTEntryIn+1,fsr2h
  4991  001372  0E00               	movlw	0
  4992  001374  8EDB               	bsf	plusw2,7,c
  4993  001376  0012               	return	
  4994  001378                     __end_of_USBCtrlEPAllowDataStage:
  4995                           	opt stack 0
  4996                           pclatu	equ	0xFFB
  4997                           pclath	equ	0xFFA
  4998                           tblptru	equ	0xFF8
  4999                           tblptrh	equ	0xFF7
  5000                           tblptrl	equ	0xFF6
  5001                           tablat	equ	0xFF5
  5002                           prodh	equ	0xFF4
  5003                           prodl	equ	0xFF3
  5004                           intcon	equ	0xFF2
  5005                           postinc0	equ	0xFEE
  5006                           fsr0h	equ	0xFEA
  5007                           fsr0l	equ	0xFE9
  5008                           wreg	equ	0xFE8
  5009                           indf1	equ	0xFE7
  5010                           postdec1	equ	0xFE5
  5011                           fsr1h	equ	0xFE2
  5012                           fsr1l	equ	0xFE1
  5013                           indf2	equ	0xFDF
  5014                           postinc2	equ	0xFDE
  5015                           postdec2	equ	0xFDD
  5016                           plusw2	equ	0xFDB
  5017                           fsr2h	equ	0xFDA
  5018                           fsr2l	equ	0xFD9
  5019                           status	equ	0xFD8
  5020                           
  5021 ;; *************** function _USBCheckStdRequest *****************
  5022 ;; Defined at:
  5023 ;;		line 2703 in file "../../../../../../framework/usb/src/usb_device.c"
  5024 ;; Parameters:    Size  Location     Type
  5025 ;;		None
  5026 ;; Auto vars:     Size  Location     Type
  5027 ;;		None
  5028 ;; Return value:  Size  Location     Type
  5029 ;;		None               void
  5030 ;; Registers used:
  5031 ;;		wreg, fsr0l, fsr0h, fsr2l, fsr2h, status,2, status,0, tblptrl, tblptrh, tblptru, prodl, prodh, cstack
  5032 ;; Tracked objects:
  5033 ;;		On entry : 0/0
  5034 ;;		On exit  : 0/0
  5035 ;;		Unchanged: 0/0
  5036 ;; Data sizes:     COMRAM   BANK0   BANK1   BANK2   BANK3   BANK4   BANK5   BANK6   BANK7
  5037 ;;      Params:         0       0       0       0       0       0       0       0       0
  5038 ;;      Locals:         0       0       0       0       0       0       0       0       0
  5039 ;;      Temps:          0       0       0       0       0       0       0       0       0
  5040 ;;      Totals:         0       0       0       0       0       0       0       0       0
  5041 ;;Total ram usage:        0 bytes
  5042 ;; Hardware stack levels used:    1
  5043 ;; Hardware stack levels required when called:    6
  5044 ;; This function calls:
  5045 ;;		_USBStdFeatureReqHandler
  5046 ;;		_USBStdGetDscHandler
  5047 ;;		_USBStdGetStatusHandler
  5048 ;;		_USBStdSetCfgHandler
  5049 ;;		_USER_USB_CALLBACK_EVENT_HANDLER
  5050 ;; This function is called by:
  5051 ;;		_USBCtrlTrfSetupHandler
  5052 ;; This function uses a non-reentrant model
  5053 ;;
  5054                           
  5055                           	psect	text28
  5056  000BF6                     __ptext28:
  5057                           	opt stack 0
  5058  000BF6                     _USBCheckStdRequest:
  5059                           	opt stack 17
  5060                           
  5061                           ;usb_device.c: 2705: if(SetupPkt.RequestType != (0x00>>5)) return;
  5062                           
  5063                           ;incstack = 0
  5064  000BF6  0104               	movlb	4	; () banked
  5065  000BF8  3920               	swapf	32,w,b	;volatile
  5066  000BFA  32E8               	rrcf	wreg,f,c
  5067  000BFC  0B03               	andlw	3
  5068  000BFE  0900               	iorlw	0
  5069  000C00  A4D8               	btfss	status,2,c
  5070  000C02  0012               	return	
  5071  000C04  D04F               	goto	i2l4365
  5072  000C06                     i2l975:
  5073                           
  5074                           ; BSR set to: 4
  5075                           ;usb_device.c: 2710: inPipes[0].info.bits.busy = 1;
  5076  000C06  0100               	movlb	0	; () banked
  5077  000C08  8F75               	bsf	(_inPipes+3)& (0+255),7,b	;volatile
  5078                           
  5079                           ; BSR set to: 0
  5080                           ;usb_device.c: 2711: USBDeviceState = ADR_PENDING_STATE;
  5081  000C0A  0E08               	movlw	8
  5082  000C0C  6E51               	movwf	_USBDeviceState,c	;volatile
  5083                           
  5084                           ;usb_device.c: 2713: break;
  5085  000C0E  0012               	return	
  5086  000C10                     i2l4335:
  5087                           
  5088                           ;usb_device.c: 2715: USBStdGetDscHandler();
  5089  000C10  ECA2  F002         	call	_USBStdGetDscHandler	;wreg free
  5090                           
  5091                           ;usb_device.c: 2716: break;
  5092  000C14  0012               	return	
  5093  000C16                     i2l4337:
  5094                           
  5095                           ;usb_device.c: 2718: USBStdSetCfgHandler();
  5096  000C16  EC74  F006         	call	_USBStdSetCfgHandler	;wreg free
  5097                           
  5098                           ;usb_device.c: 2719: break;
  5099  000C1A  0012               	return	
  5100  000C1C                     i2l4339:
  5101                           
  5102                           ;usb_device.c: 2721: inPipes[0].pSrc.bRam = (uint8_t*)&USBActiveConfiguration;
  5103  000C1C  0E59               	movlw	low _USBActiveConfiguration
  5104  000C1E  0100               	movlb	0	; () banked
  5105  000C20  6F72               	movwf	_inPipes& (0+255),b	;volatile
  5106  000C22  0E00               	movlw	high _USBActiveConfiguration
  5107  000C24  0100               	movlb	0	; () banked
  5108  000C26  6F73               	movwf	(_inPipes+1)& (0+255),b	;volatile
  5109                           
  5110                           ; BSR set to: 0
  5111                           ;usb_device.c: 2722: inPipes[0].info.bits.ctrl_trf_mem = 0x01;
  5112  000C28  0100               	movlb	0	; () banked
  5113  000C2A  8175               	bsf	(_inPipes+3)& (0+255),0,b	;volatile
  5114                           
  5115                           ; BSR set to: 0
  5116                           ;usb_device.c: 2723: inPipes[0].wCount.v[0] = 1;
  5117  000C2C  0E01               	movlw	1
  5118  000C2E  0100               	movlb	0	; () banked
  5119  000C30  6F76               	movwf	(_inPipes+4)& (0+255),b	;volatile
  5120                           
  5121                           ; BSR set to: 0
  5122                           ;usb_device.c: 2724: inPipes[0].info.bits.busy = 1;
  5123  000C32  0100               	movlb	0	; () banked
  5124  000C34  8F75               	bsf	(_inPipes+3)& (0+255),7,b	;volatile
  5125                           
  5126                           ;usb_device.c: 2725: break;
  5127  000C36  0012               	return	
  5128  000C38                     i2l4347:
  5129                           
  5130                           ;usb_device.c: 2727: USBStdGetStatusHandler();
  5131  000C38  EC11  F008         	call	_USBStdGetStatusHandler	;wreg free
  5132                           
  5133                           ;usb_device.c: 2728: break;
  5134  000C3C  0012               	return	
  5135  000C3E                     i2l4349:
  5136                           
  5137                           ;usb_device.c: 2730: case 3:
  5138                           ;usb_device.c: 2731: USBStdFeatureReqHandler();
  5139  000C3E  EC0D  F000         	call	_USBStdFeatureReqHandler	;wreg free
  5140                           
  5141                           ;usb_device.c: 2732: break;
  5142  000C42  0012               	return	
  5143  000C44                     i2l4351:
  5144                           
  5145                           ;usb_device.c: 2734: inPipes[0].pSrc.bRam = (uint8_t*)&USBAlternateInterface[SetupPkt.bI
      +                          ntfID];
  5146  000C44  0104               	movlb	4	; () banked
  5147  000C46  5124               	movf	36,w,b	;volatile
  5148  000C48  0D01               	mullw	1
  5149  000C4A  0E5A               	movlw	low _USBAlternateInterface
  5150  000C4C  24F3               	addwf	prodl,w,c
  5151  000C4E  0100               	movlb	0	; () banked
  5152  000C50  6F72               	movwf	_inPipes& (0+255),b	;volatile
  5153  000C52  0E00               	movlw	high _USBAlternateInterface
  5154  000C54  20F4               	addwfc	prodh,w,c
  5155  000C56  0100               	movlb	0	; () banked
  5156  000C58  6F73               	movwf	(_inPipes+1)& (0+255),b	;volatile
  5157                           
  5158                           ; BSR set to: 0
  5159                           ;usb_device.c: 2735: inPipes[0].info.bits.ctrl_trf_mem = 0x01;
  5160  000C5A  0100               	movlb	0	; () banked
  5161  000C5C  8175               	bsf	(_inPipes+3)& (0+255),0,b	;volatile
  5162                           
  5163                           ; BSR set to: 0
  5164                           ;usb_device.c: 2736: inPipes[0].wCount.v[0] = 1;
  5165  000C5E  0E01               	movlw	1
  5166  000C60  0100               	movlb	0	; () banked
  5167  000C62  6F76               	movwf	(_inPipes+4)& (0+255),b	;volatile
  5168                           
  5169                           ; BSR set to: 0
  5170                           ;usb_device.c: 2737: inPipes[0].info.bits.busy = 1;
  5171  000C64  0100               	movlb	0	; () banked
  5172  000C66  8F75               	bsf	(_inPipes+3)& (0+255),7,b	;volatile
  5173                           
  5174                           ;usb_device.c: 2738: break;
  5175  000C68  0012               	return	
  5176  000C6A                     i2l984:
  5177                           
  5178                           ; BSR set to: 4
  5179                           ;usb_device.c: 2740: inPipes[0].info.bits.busy = 1;
  5180  000C6A  0100               	movlb	0	; () banked
  5181  000C6C  8F75               	bsf	(_inPipes+3)& (0+255),7,b	;volatile
  5182                           
  5183                           ; BSR set to: 0
  5184                           ;usb_device.c: 2741: USBAlternateInterface[SetupPkt.bIntfID] = SetupPkt.bAltID;
  5185  000C6E  0104               	movlb	4	; () banked
  5186  000C70  5124               	movf	36,w,b	;volatile
  5187  000C72  0D01               	mullw	1
  5188  000C74  0E5A               	movlw	low _USBAlternateInterface
  5189  000C76  24F3               	addwf	prodl,w,c
  5190  000C78  6ED9               	movwf	fsr2l,c
  5191  000C7A  0E00               	movlw	high _USBAlternateInterface
  5192  000C7C  20F4               	addwfc	prodh,w,c
  5193  000C7E  6EDA               	movwf	fsr2h,c
  5194  000C80  C422 FFDF          	movff	1058,indf2	;volatile
  5195                           
  5196                           ;usb_device.c: 2742: break;
  5197  000C84  0012               	return	
  5198  000C86                     i2l4361:
  5199                           
  5200                           ; BSR set to: 4
  5201                           ;usb_device.c: 2744: USER_USB_CALLBACK_EVENT_HANDLER(EVENT_SET_DESCRIPTOR,0,0);
  5202  000C86  0E00               	movlw	0
  5203  000C88  6E10               	movwf	USER_USB_CALLBACK_EVENT_HANDLER@event+1,c
  5204  000C8A  0E02               	movlw	2
  5205  000C8C  6E0F               	movwf	USER_USB_CALLBACK_EVENT_HANDLER@event,c
  5206  000C8E  0E00               	movlw	0
  5207  000C90  6E11               	movwf	USER_USB_CALLBACK_EVENT_HANDLER@pdata,c
  5208  000C92  0E00               	movlw	0
  5209  000C94  6E12               	movwf	USER_USB_CALLBACK_EVENT_HANDLER@pdata+1,c
  5210  000C96  0E00               	movlw	0
  5211  000C98  6E14               	movwf	USER_USB_CALLBACK_EVENT_HANDLER@size+1,c
  5212  000C9A  0E00               	movlw	0
  5213  000C9C  6E13               	movwf	USER_USB_CALLBACK_EVENT_HANDLER@size,c
  5214  000C9E  EC95  F00A         	call	_USER_USB_CALLBACK_EVENT_HANDLER	;wreg free
  5215                           
  5216                           ;usb_device.c: 2749: }
  5217                           
  5218                           ;usb_device.c: 2748: break;
  5219                           
  5220                           ;usb_device.c: 2747: default:
  5221                           
  5222                           ;usb_device.c: 2746: case 12:
  5223                           
  5224                           ;usb_device.c: 2745: break;
  5225  000CA2  0012               	return	
  5226  000CA4                     i2l4365:
  5227  000CA4  0104               	movlb	4	; () banked
  5228  000CA6  5121               	movf	33,w,b	;volatile
  5229                           
  5230                           ; Switch size 1, requested type "space"
  5231                           ; Number of cases is 11, Range of values is 0 to 12
  5232                           ; switch strategies available:
  5233                           ; Name         Instructions Cycles
  5234                           ; simple_byte           34    18 (average)
  5235                           ;	Chosen strategy is simple_byte
  5236  000CA8  0A00               	xorlw	0	; case 0
  5237  000CAA  B4D8               	btfsc	status,2,c
  5238  000CAC  D7C5               	goto	i2l4347
  5239  000CAE  0A01               	xorlw	1	; case 1
  5240  000CB0  B4D8               	btfsc	status,2,c
  5241  000CB2  D7C5               	goto	i2l4349
  5242  000CB4  0A02               	xorlw	2	; case 3
  5243  000CB6  B4D8               	btfsc	status,2,c
  5244  000CB8  D7C2               	goto	i2l4349
  5245  000CBA  0A06               	xorlw	6	; case 5
  5246  000CBC  B4D8               	btfsc	status,2,c
  5247  000CBE  D7A3               	goto	i2l975
  5248  000CC0  0A03               	xorlw	3	; case 6
  5249  000CC2  B4D8               	btfsc	status,2,c
  5250  000CC4  D7A5               	goto	i2l4335
  5251  000CC6  0A01               	xorlw	1	; case 7
  5252  000CC8  B4D8               	btfsc	status,2,c
  5253  000CCA  D7DD               	goto	i2l4361
  5254  000CCC  0A0F               	xorlw	15	; case 8
  5255  000CCE  B4D8               	btfsc	status,2,c
  5256  000CD0  D7A5               	goto	i2l4339
  5257  000CD2  0A01               	xorlw	1	; case 9
  5258  000CD4  B4D8               	btfsc	status,2,c
  5259  000CD6  D79F               	goto	i2l4337
  5260  000CD8  0A03               	xorlw	3	; case 10
  5261  000CDA  B4D8               	btfsc	status,2,c
  5262  000CDC  D7B3               	goto	i2l4351
  5263  000CDE  0A01               	xorlw	1	; case 11
  5264  000CE0  B4D8               	btfsc	status,2,c
  5265  000CE2  D7C3               	goto	i2l984
  5266  000CE4  0A07               	xorlw	7	; case 12
  5267  000CE6  0012               	return	
  5268  000CE8                     __end_of_USBCheckStdRequest:
  5269                           	opt stack 0
  5270                           pclatu	equ	0xFFB
  5271                           pclath	equ	0xFFA
  5272                           tblptru	equ	0xFF8
  5273                           tblptrh	equ	0xFF7
  5274                           tblptrl	equ	0xFF6
  5275                           tablat	equ	0xFF5
  5276                           prodh	equ	0xFF4
  5277                           prodl	equ	0xFF3
  5278                           intcon	equ	0xFF2
  5279                           postinc0	equ	0xFEE
  5280                           fsr0h	equ	0xFEA
  5281                           fsr0l	equ	0xFE9
  5282                           wreg	equ	0xFE8
  5283                           indf1	equ	0xFE7
  5284                           postdec1	equ	0xFE5
  5285                           fsr1h	equ	0xFE2
  5286                           fsr1l	equ	0xFE1
  5287                           indf2	equ	0xFDF
  5288                           postinc2	equ	0xFDE
  5289                           postdec2	equ	0xFDD
  5290                           plusw2	equ	0xFDB
  5291                           fsr2h	equ	0xFDA
  5292                           fsr2l	equ	0xFD9
  5293                           status	equ	0xFD8
  5294                           
  5295 ;; *************** function _USBStdSetCfgHandler *****************
  5296 ;; Defined at:
  5297 ;;		line 1986 in file "../../../../../../framework/usb/src/usb_device.c"
  5298 ;; Parameters:    Size  Location     Type
  5299 ;;		None
  5300 ;; Auto vars:     Size  Location     Type
  5301 ;;  i               1   22[COMRAM] unsigned char 
  5302 ;; Return value:  Size  Location     Type
  5303 ;;		None               void
  5304 ;; Registers used:
  5305 ;;		wreg, fsr2l, fsr2h, status,2, status,0, prodl, prodh, cstack
  5306 ;; Tracked objects:
  5307 ;;		On entry : 0/0
  5308 ;;		On exit  : 0/0
  5309 ;;		Unchanged: 0/0
  5310 ;; Data sizes:     COMRAM   BANK0   BANK1   BANK2   BANK3   BANK4   BANK5   BANK6   BANK7
  5311 ;;      Params:         0       0       0       0       0       0       0       0       0
  5312 ;;      Locals:         1       0       0       0       0       0       0       0       0
  5313 ;;      Temps:          0       0       0       0       0       0       0       0       0
  5314 ;;      Totals:         1       0       0       0       0       0       0       0       0
  5315 ;;Total ram usage:        1 bytes
  5316 ;; Hardware stack levels used:    1
  5317 ;; Hardware stack levels required when called:    5
  5318 ;; This function calls:
  5319 ;;		_USER_USB_CALLBACK_EVENT_HANDLER
  5320 ;;		i2_memset
  5321 ;; This function is called by:
  5322 ;;		_USBCheckStdRequest
  5323 ;; This function uses a non-reentrant model
  5324 ;;
  5325                           
  5326                           	psect	text29
  5327  000CE8                     __ptext29:
  5328                           	opt stack 0
  5329  000CE8                     _USBStdSetCfgHandler:
  5330                           	opt stack 17
  5331                           
  5332                           ;usb_device.c: 1988: uint8_t i;
  5333                           ;usb_device.c: 1991: inPipes[0].info.bits.busy = 1;
  5334                           
  5335                           ;incstack = 0
  5336  000CE8  0100               	movlb	0	; () banked
  5337  000CEA  8F75               	bsf	(_inPipes+3)& (0+255),7,b	;volatile
  5338                           
  5339                           ; BSR set to: 0
  5340                           ;usb_device.c: 1994: memset((void*)&UEP1,0x00,(1));;
  5341  000CEC  0E71               	movlw	113
  5342  000CEE  6E01               	movwf	i2memset@p1,c
  5343  000CF0  0E0F               	movlw	15
  5344  000CF2  6E02               	movwf	i2memset@p1+1,c
  5345  000CF4  0E00               	movlw	0
  5346  000CF6  6E04               	movwf	i2memset@c+1,c
  5347  000CF8  0E00               	movlw	0
  5348  000CFA  6E03               	movwf	i2memset@c,c
  5349  000CFC  0E00               	movlw	0
  5350  000CFE  6E06               	movwf	i2memset@n+1,c
  5351  000D00  0E01               	movlw	1
  5352  000D02  6E05               	movwf	i2memset@n,c
  5353  000D04  EC42  F00E         	call	i2_memset	;wreg free
  5354                           
  5355                           ;usb_device.c: 1997: memset((void*)&BDT[0], 0x00, sizeof(BDT));
  5356  000D08  0E00               	movlw	0
  5357  000D0A  6E01               	movwf	i2memset@p1,c
  5358  000D0C  0E04               	movlw	4
  5359  000D0E  6E02               	movwf	i2memset@p1+1,c
  5360  000D10  0E00               	movlw	0
  5361  000D12  6E04               	movwf	i2memset@c+1,c
  5362  000D14  0E00               	movlw	0
  5363  000D16  6E03               	movwf	i2memset@c,c
  5364  000D18  0E00               	movlw	0
  5365  000D1A  6E06               	movwf	i2memset@n+1,c
  5366  000D1C  0E20               	movlw	32
  5367  000D1E  6E05               	movwf	i2memset@n,c
  5368  000D20  EC42  F00E         	call	i2_memset	;wreg free
  5369                           
  5370                           ;usb_device.c: 2000: UCONbits.PPBRST = 1;
  5371  000D24  8C6D               	bsf	3949,6,c	;volatile
  5372                           
  5373                           ;usb_device.c: 2005: for(i = 0; i < (uint8_t)(1+1u); i++)
  5374  000D26  0E00               	movlw	0
  5375  000D28  6E17               	movwf	USBStdSetCfgHandler@i,c
  5376  000D2A                     i2l4061:
  5377  000D2A  0E01               	movlw	1
  5378  000D2C  6417               	cpfsgt	USBStdSetCfgHandler@i,c
  5379  000D2E  D001               	goto	i2l4065
  5380  000D30  D016               	goto	i2l4071
  5381  000D32                     i2l4065:
  5382                           
  5383                           ;usb_device.c: 2006: {
  5384                           ;usb_device.c: 2007: ep_data_in[i].Val = 0u;
  5385  000D32  5017               	movf	USBStdSetCfgHandler@i,w,c
  5386  000D34  0D01               	mullw	1
  5387  000D36  0E8F               	movlw	low _ep_data_in
  5388  000D38  24F3               	addwf	prodl,w,c
  5389  000D3A  6ED9               	movwf	fsr2l,c
  5390  000D3C  0E00               	movlw	high _ep_data_in
  5391  000D3E  20F4               	addwfc	prodh,w,c
  5392  000D40  6EDA               	movwf	fsr2h,c
  5393  000D42  0E00               	movlw	0
  5394  000D44  6EDF               	movwf	indf2,c
  5395                           
  5396                           ;usb_device.c: 2008: ep_data_out[i].Val = 0u;
  5397  000D46  5017               	movf	USBStdSetCfgHandler@i,w,c
  5398  000D48  0D01               	mullw	1
  5399  000D4A  0E91               	movlw	low _ep_data_out
  5400  000D4C  24F3               	addwf	prodl,w,c
  5401  000D4E  6ED9               	movwf	fsr2l,c
  5402  000D50  0E00               	movlw	high _ep_data_out
  5403  000D52  20F4               	addwfc	prodh,w,c
  5404  000D54  6EDA               	movwf	fsr2h,c
  5405  000D56  0E00               	movlw	0
  5406  000D58  6EDF               	movwf	indf2,c
  5407  000D5A  2A17               	incf	USBStdSetCfgHandler@i,f,c
  5408  000D5C  D7E6               	goto	i2l4061
  5409  000D5E                     i2l4071:
  5410                           
  5411                           ;usb_device.c: 2009: }
  5412                           ;usb_device.c: 2012: memset((void*)&USBAlternateInterface,0x00,1);
  5413  000D5E  0E5A               	movlw	low _USBAlternateInterface
  5414  000D60  6E01               	movwf	i2memset@p1,c
  5415  000D62  0E00               	movlw	high _USBAlternateInterface
  5416  000D64  6E02               	movwf	i2memset@p1+1,c
  5417  000D66  0E00               	movlw	0
  5418  000D68  6E04               	movwf	i2memset@c+1,c
  5419  000D6A  0E00               	movlw	0
  5420  000D6C  6E03               	movwf	i2memset@c,c
  5421  000D6E  0E00               	movlw	0
  5422  000D70  6E06               	movwf	i2memset@n+1,c
  5423  000D72  0E01               	movlw	1
  5424  000D74  6E05               	movwf	i2memset@n,c
  5425  000D76  EC42  F00E         	call	i2_memset	;wreg free
  5426                           
  5427                           ;usb_device.c: 2015: UCONbits.PPBRST = 0;
  5428  000D7A  9C6D               	bcf	3949,6,c	;volatile
  5429                           
  5430                           ;usb_device.c: 2017: pBDTEntryIn[0] = (volatile BDT_ENTRY*)&BDT[2];
  5431  000D7C  0E08               	movlw	8
  5432  000D7E  0100               	movlb	0	; () banked
  5433  000D80  6F78               	movwf	_pBDTEntryIn& (0+255),b
  5434  000D82  0E04               	movlw	4
  5435  000D84  0100               	movlb	0	; () banked
  5436  000D86  6F79               	movwf	(_pBDTEntryIn+1)& (0+255),b
  5437                           
  5438                           ; BSR set to: 0
  5439                           ;usb_device.c: 2020: pBDTEntryEP0OutCurrent = (volatile BDT_ENTRY*)&BDT[0];
  5440  000D88  0E00               	movlw	0
  5441  000D8A  6E45               	movwf	_pBDTEntryEP0OutCurrent,c
  5442  000D8C  0E04               	movlw	4
  5443  000D8E  6E46               	movwf	_pBDTEntryEP0OutCurrent+1,c
  5444                           
  5445                           ; BSR set to: 0
  5446                           ;usb_device.c: 2021: pBDTEntryEP0OutNext = pBDTEntryEP0OutCurrent;
  5447  000D90  C045  F047         	movff	_pBDTEntryEP0OutCurrent,_pBDTEntryEP0OutNext
  5448  000D94  C046  F048         	movff	_pBDTEntryEP0OutCurrent+1,_pBDTEntryEP0OutNext+1
  5449                           
  5450                           ; BSR set to: 0
  5451                           ;usb_device.c: 2024: USBActiveConfiguration = SetupPkt.bConfigurationValue;
  5452  000D98  C422 F059          	movff	1058,_USBActiveConfiguration	;volatile
  5453                           
  5454                           ; BSR set to: 0
  5455                           ;usb_device.c: 2027: if(USBActiveConfiguration == 0)
  5456  000D9C  5059               	movf	_USBActiveConfiguration,w,c	;volatile
  5457  000D9E  A4D8               	btfss	status,2,c
  5458  000DA0  D003               	goto	i2l4087
  5459                           
  5460                           ; BSR set to: 0
  5461                           ;usb_device.c: 2028: {
  5462                           ;usb_device.c: 2030: USBDeviceState = ADDRESS_STATE;
  5463  000DA2  0E10               	movlw	16
  5464  000DA4  6E51               	movwf	_USBDeviceState,c	;volatile
  5465                           
  5466                           ;usb_device.c: 2031: }
  5467  000DA6  0012               	return	
  5468  000DA8                     i2l4087:
  5469                           
  5470                           ; BSR set to: 0
  5471                           ;usb_device.c: 2032: else
  5472                           ;usb_device.c: 2033: {
  5473                           ;usb_device.c: 2035: USER_USB_CALLBACK_EVENT_HANDLER(EVENT_CONFIGURED,(void*)&USBActiveC
      +                          onfiguration,1);
  5474  000DA8  0E00               	movlw	0
  5475  000DAA  6E10               	movwf	USER_USB_CALLBACK_EVENT_HANDLER@event+1,c
  5476  000DAC  0E01               	movlw	1
  5477  000DAE  6E0F               	movwf	USER_USB_CALLBACK_EVENT_HANDLER@event,c
  5478  000DB0  0E59               	movlw	low _USBActiveConfiguration
  5479  000DB2  6E11               	movwf	USER_USB_CALLBACK_EVENT_HANDLER@pdata,c
  5480  000DB4  0E00               	movlw	high _USBActiveConfiguration
  5481  000DB6  6E12               	movwf	USER_USB_CALLBACK_EVENT_HANDLER@pdata+1,c
  5482  000DB8  0E00               	movlw	0
  5483  000DBA  6E14               	movwf	USER_USB_CALLBACK_EVENT_HANDLER@size+1,c
  5484  000DBC  0E01               	movlw	1
  5485  000DBE  6E13               	movwf	USER_USB_CALLBACK_EVENT_HANDLER@size,c
  5486  000DC0  EC95  F00A         	call	_USER_USB_CALLBACK_EVENT_HANDLER	;wreg free
  5487                           
  5488                           ;usb_device.c: 2040: USBDeviceState = CONFIGURED_STATE;
  5489  000DC4  0E20               	movlw	32
  5490  000DC6  6E51               	movwf	_USBDeviceState,c	;volatile
  5491  000DC8  0012               	return	
  5492  000DCA                     __end_of_USBStdSetCfgHandler:
  5493                           	opt stack 0
  5494                           pclatu	equ	0xFFB
  5495                           pclath	equ	0xFFA
  5496                           tblptru	equ	0xFF8
  5497                           tblptrh	equ	0xFF7
  5498                           tblptrl	equ	0xFF6
  5499                           tablat	equ	0xFF5
  5500                           prodh	equ	0xFF4
  5501                           prodl	equ	0xFF3
  5502                           intcon	equ	0xFF2
  5503                           postinc0	equ	0xFEE
  5504                           fsr0h	equ	0xFEA
  5505                           fsr0l	equ	0xFE9
  5506                           wreg	equ	0xFE8
  5507                           indf1	equ	0xFE7
  5508                           postdec1	equ	0xFE5
  5509                           fsr1h	equ	0xFE2
  5510                           fsr1l	equ	0xFE1
  5511                           indf2	equ	0xFDF
  5512                           postinc2	equ	0xFDE
  5513                           postdec2	equ	0xFDD
  5514                           plusw2	equ	0xFDB
  5515                           fsr2h	equ	0xFDA
  5516                           fsr2l	equ	0xFD9
  5517                           status	equ	0xFD8
  5518                           
  5519 ;; *************** function i2_memset *****************
  5520 ;; Defined at:
  5521 ;;		line 8 in file "/Applications/microchip/xc8/v1.35/sources/common/memset.c"
  5522 ;; Parameters:    Size  Location     Type
  5523 ;;  p1              2    0[COMRAM] PTR void 
  5524 ;;		 -> USBAlternateInterface(1), BDT(32), UEP1(1), 
  5525 ;;  c               2    2[COMRAM] int 
  5526 ;;  n               2    4[COMRAM] unsigned int 
  5527 ;; Auto vars:     Size  Location     Type
  5528 ;;  memset          2    6[COMRAM] PTR unsigned char 
  5529 ;;		 -> USBAlternateInterface(1), BDT(32), UEP1(1), 
  5530 ;; Return value:  Size  Location     Type
  5531 ;;                  2    0[COMRAM] PTR void 
  5532 ;; Registers used:
  5533 ;;		wreg, fsr2l, fsr2h, status,2, status,0
  5534 ;; Tracked objects:
  5535 ;;		On entry : 0/0
  5536 ;;		On exit  : 0/0
  5537 ;;		Unchanged: 0/0
  5538 ;; Data sizes:     COMRAM   BANK0   BANK1   BANK2   BANK3   BANK4   BANK5   BANK6   BANK7
  5539 ;;      Params:         6       0       0       0       0       0       0       0       0
  5540 ;;      Locals:         2       0       0       0       0       0       0       0       0
  5541 ;;      Temps:          0       0       0       0       0       0       0       0       0
  5542 ;;      Totals:         8       0       0       0       0       0       0       0       0
  5543 ;;Total ram usage:        8 bytes
  5544 ;; Hardware stack levels used:    1
  5545 ;; This function calls:
  5546 ;;		Nothing
  5547 ;; This function is called by:
  5548 ;;		_USBStdSetCfgHandler
  5549 ;;		i2_USBDeviceInit
  5550 ;; This function uses a non-reentrant model
  5551 ;;
  5552                           
  5553                           	psect	text30
  5554  001C84                     __ptext30:
  5555                           	opt stack 0
  5556  001C84                     i2_memset:
  5557                           	opt stack 24
  5558                           
  5559                           ;incstack = 0
  5560  001C84  C001  F007         	movff	i2memset@p1,i2memset@p
  5561  001C88  C002  F008         	movff	i2memset@p1+1,i2memset@p+1
  5562  001C8C  D008               	goto	i2l3995
  5563  001C8E                     i2l3991:
  5564  001C8E  C007  FFD9         	movff	i2memset@p,fsr2l
  5565  001C92  C008  FFDA         	movff	i2memset@p+1,fsr2h
  5566  001C96  C003  FFDF         	movff	i2memset@c,indf2
  5567  001C9A  4A07               	infsnz	i2memset@p,f,c
  5568  001C9C  2A08               	incf	i2memset@p+1,f,c
  5569  001C9E                     i2l3995:
  5570  001C9E  0605               	decf	i2memset@n,f,c
  5571  001CA0  A0D8               	btfss	status,0,c
  5572  001CA2  0606               	decf	i2memset@n+1,f,c
  5573  001CA4  2805               	incf	i2memset@n,w,c
  5574  001CA6  E1F3               	bnz	i2l3991
  5575  001CA8  2806               	incf	i2memset@n+1,w,c
  5576  001CAA  B4D8               	btfsc	status,2,c
  5577  001CAC  0012               	return	
  5578  001CAE  D7EF               	goto	i2l3991
  5579  001CB0                     __end_ofi2_memset:
  5580                           	opt stack 0
  5581                           pclatu	equ	0xFFB
  5582                           pclath	equ	0xFFA
  5583                           tblptru	equ	0xFF8
  5584                           tblptrh	equ	0xFF7
  5585                           tblptrl	equ	0xFF6
  5586                           tablat	equ	0xFF5
  5587                           prodh	equ	0xFF4
  5588                           prodl	equ	0xFF3
  5589                           intcon	equ	0xFF2
  5590                           postinc0	equ	0xFEE
  5591                           fsr0h	equ	0xFEA
  5592                           fsr0l	equ	0xFE9
  5593                           wreg	equ	0xFE8
  5594                           indf1	equ	0xFE7
  5595                           postdec1	equ	0xFE5
  5596                           fsr1h	equ	0xFE2
  5597                           fsr1l	equ	0xFE1
  5598                           indf2	equ	0xFDF
  5599                           postinc2	equ	0xFDE
  5600                           postdec2	equ	0xFDD
  5601                           plusw2	equ	0xFDB
  5602                           fsr2h	equ	0xFDA
  5603                           fsr2l	equ	0xFD9
  5604                           status	equ	0xFD8
  5605                           
  5606 ;; *************** function _USBStdGetStatusHandler *****************
  5607 ;; Defined at:
  5608 ;;		line 2147 in file "../../../../../../framework/usb/src/usb_device.c"
  5609 ;; Parameters:    Size  Location     Type
  5610 ;;		None
  5611 ;; Auto vars:     Size  Location     Type
  5612 ;;  p               2    1[COMRAM] PTR struct __BDT
  5613 ;;		 -> BDT(32), NULL(0), 
  5614 ;; Return value:  Size  Location     Type
  5615 ;;		None               void
  5616 ;; Registers used:
  5617 ;;		wreg, fsr2l, fsr2h, status,2, status,0, prodl, prodh
  5618 ;; Tracked objects:
  5619 ;;		On entry : 0/0
  5620 ;;		On exit  : 0/0
  5621 ;;		Unchanged: 0/0
  5622 ;; Data sizes:     COMRAM   BANK0   BANK1   BANK2   BANK3   BANK4   BANK5   BANK6   BANK7
  5623 ;;      Params:         0       0       0       0       0       0       0       0       0
  5624 ;;      Locals:         2       0       0       0       0       0       0       0       0
  5625 ;;      Temps:          1       0       0       0       0       0       0       0       0
  5626 ;;      Totals:         3       0       0       0       0       0       0       0       0
  5627 ;;Total ram usage:        3 bytes
  5628 ;; Hardware stack levels used:    1
  5629 ;; This function calls:
  5630 ;;		Nothing
  5631 ;; This function is called by:
  5632 ;;		_USBCheckStdRequest
  5633 ;; This function uses a non-reentrant model
  5634 ;;
  5635                           
  5636                           	psect	text31
  5637  001022                     __ptext31:
  5638                           	opt stack 0
  5639  001022                     _USBStdGetStatusHandler:
  5640                           	opt stack 22
  5641                           
  5642                           ;usb_device.c: 2149: CtrlTrfData[0] = 0;
  5643                           
  5644                           ;incstack = 0
  5645  001022  0E00               	movlw	0
  5646  001024  0104               	movlb	4	; () banked
  5647  001026  6F28               	movwf	40,b	;volatile
  5648                           
  5649                           ;usb_device.c: 2150: CtrlTrfData[1] = 0;
  5650  001028  0E00               	movlw	0
  5651  00102A  0104               	movlb	4	; () banked
  5652  00102C  6F29               	movwf	41,b	;volatile
  5653                           
  5654                           ;usb_device.c: 2152: switch(SetupPkt.Recipient)
  5655  00102E  D03D               	goto	i2l4143
  5656  001030                     i2l913:
  5657                           
  5658                           ; BSR set to: 4
  5659                           ;usb_device.c: 2160: if(1 == 1)
  5660  001030  0100               	movlb	0	; () banked
  5661  001032  8F75               	bsf	(_inPipes+3)& (0+255),7,b	;volatile
  5662                           
  5663                           ; BSR set to: 0
  5664                           ;usb_device.c: 2161: {
  5665                           ;usb_device.c: 2162: CtrlTrfData[0]|=0x01;
  5666  001034  0104               	movlb	4	; () banked
  5667  001036  8128               	bsf	40,0,b	;volatile
  5668                           
  5669                           ; BSR set to: 4
  5670                           ;usb_device.c: 2163: }
  5671                           ;usb_device.c: 2165: if(RemoteWakeup == 1)
  5672                           
  5673                           ; BSR set to: 4
  5674  001038  044C               	decf	_RemoteWakeup,w,c	;volatile
  5675  00103A  A4D8               	btfss	status,2,c
  5676  00103C  D042               	goto	i2l916
  5677                           
  5678                           ; BSR set to: 4
  5679                           ;usb_device.c: 2166: {
  5680                           ;usb_device.c: 2167: CtrlTrfData[0]|=0x02;
  5681  00103E  0104               	movlb	4	; () banked
  5682  001040  8328               	bsf	40,1,b	;volatile
  5683                           
  5684                           ; BSR set to: 4
  5685                           ;usb_device.c: 2168: }
  5686                           ;usb_device.c: 2169: break;
  5687  001042  D03F               	goto	i2l916
  5688  001044                     i2l917:
  5689                           
  5690                           ; BSR set to: 4
  5691                           ;usb_device.c: 2171: inPipes[0].info.bits.busy = 1;
  5692  001044  0100               	movlb	0	; () banked
  5693  001046  8F75               	bsf	(_inPipes+3)& (0+255),7,b	;volatile
  5694                           
  5695                           ;usb_device.c: 2172: break;
  5696  001048  D03C               	goto	i2l916
  5697  00104A                     i2l918:
  5698                           
  5699                           ; BSR set to: 4
  5700                           ;usb_device.c: 2174: inPipes[0].info.bits.busy = 1;
  5701  00104A  0100               	movlb	0	; () banked
  5702  00104C  8F75               	bsf	(_inPipes+3)& (0+255),7,b	;volatile
  5703                           
  5704                           ;usb_device.c: 2178: {
  5705                           ;usb_device.c: 2179: BDT_ENTRY *p;
  5706                           ;usb_device.c: 2181: if(SetupPkt.EPDir == 0)
  5707  00104E  0104               	movlb	4	; () banked
  5708  001050  BF24               	btfsc	36,7,b	;volatile
  5709  001052  D00B               	goto	i2l4133
  5710                           
  5711                           ; BSR set to: 4
  5712                           ;usb_device.c: 2182: {
  5713                           ;usb_device.c: 2183: p = (BDT_ENTRY*)pBDTEntryOut[SetupPkt.EPNum];
  5714  001054  0104               	movlb	4	; () banked
  5715  001056  5124               	movf	36,w,b	;volatile
  5716  001058  0B0F               	andlw	15
  5717  00105A  6E01               	movwf	??_USBStdGetStatusHandler& (0+255),c
  5718  00105C  5001               	movf	??_USBStdGetStatusHandler,w,c
  5719  00105E  0D02               	mullw	2
  5720  001060  0E7C               	movlw	low _pBDTEntryOut
  5721  001062  24F3               	addwf	prodl,w,c
  5722  001064  6ED9               	movwf	fsr2l,c
  5723  001066  0E00               	movlw	high _pBDTEntryOut
  5724  001068  D00A               	goto	L2
  5725  00106A                     i2l4133:
  5726                           
  5727                           ; BSR set to: 4
  5728                           ;usb_device.c: 2185: else
  5729                           ;usb_device.c: 2186: {
  5730                           ;usb_device.c: 2187: p = (BDT_ENTRY*)pBDTEntryIn[SetupPkt.EPNum];
  5731  00106A  0104               	movlb	4	; () banked
  5732  00106C  5124               	movf	36,w,b	;volatile
  5733  00106E  0B0F               	andlw	15
  5734  001070  6E01               	movwf	??_USBStdGetStatusHandler& (0+255),c
  5735  001072  5001               	movf	??_USBStdGetStatusHandler,w,c
  5736  001074  0D02               	mullw	2
  5737  001076  0E78               	movlw	low _pBDTEntryIn
  5738  001078  24F3               	addwf	prodl,w,c
  5739  00107A  6ED9               	movwf	fsr2l,c
  5740  00107C  0E00               	movlw	high _pBDTEntryIn
  5741  00107E                     L2:
  5742  00107E  20F4               	addwfc	prodh,w,c
  5743  001080  6EDA               	movwf	fsr2h,c
  5744  001082  CFDE F002          	movff	postinc2,USBStdGetStatusHandler@p
  5745  001086  CFDD F003          	movff	postdec2,USBStdGetStatusHandler@p+1
  5746                           
  5747                           ; BSR set to: 4
  5748                           ;usb_device.c: 2188: }
  5749                           ;usb_device.c: 2190: if((p->STAT.UOWN == 1) && (p->STAT.BSTALL == 1))
  5750                           
  5751                           ; BSR set to: 4
  5752  00108A  C002  FFD9         	movff	USBStdGetStatusHandler@p,fsr2l
  5753  00108E  C003  FFDA         	movff	USBStdGetStatusHandler@p+1,fsr2h
  5754  001092  AEDF               	btfss	indf2,7,c
  5755  001094  D016               	goto	i2l916
  5756                           
  5757                           ; BSR set to: 4
  5758  001096  C002  FFD9         	movff	USBStdGetStatusHandler@p,fsr2l
  5759  00109A  C003  FFDA         	movff	USBStdGetStatusHandler@p+1,fsr2h
  5760  00109E  A4DF               	btfss	indf2,2,c
  5761  0010A0  D010               	goto	i2l916
  5762                           
  5763                           ; BSR set to: 4
  5764                           ;usb_device.c: 2191: CtrlTrfData[0]=0x01;
  5765  0010A2  0E01               	movlw	1
  5766  0010A4  0104               	movlb	4	; () banked
  5767  0010A6  6F28               	movwf	40,b	;volatile
  5768                           
  5769                           ; BSR set to: 4
  5770                           ;usb_device.c: 2193: }
  5771                           ;usb_device.c: 2194: }
  5772                           
  5773                           ; BSR set to: 4
  5774                           ;usb_device.c: 2192: break;
  5775  0010A8  D00C               	goto	i2l916
  5776  0010AA                     i2l4143:
  5777                           
  5778                           ; BSR set to: 4
  5779  0010AA  0104               	movlb	4	; () banked
  5780  0010AC  5120               	movf	32,w,b	;volatile
  5781  0010AE  0B1F               	andlw	31
  5782                           
  5783                           ; Switch size 1, requested type "space"
  5784                           ; Number of cases is 3, Range of values is 0 to 2
  5785                           ; switch strategies available:
  5786                           ; Name         Instructions Cycles
  5787                           ; simple_byte           10     6 (average)
  5788                           ;	Chosen strategy is simple_byte
  5789  0010B0  0A00               	xorlw	0	; case 0
  5790  0010B2  B4D8               	btfsc	status,2,c
  5791  0010B4  D7BD               	goto	i2l913
  5792  0010B6  0A01               	xorlw	1	; case 1
  5793  0010B8  B4D8               	btfsc	status,2,c
  5794  0010BA  D7C4               	goto	i2l917
  5795  0010BC  0A03               	xorlw	3	; case 2
  5796  0010BE  B4D8               	btfsc	status,2,c
  5797  0010C0  D7C4               	goto	i2l918
  5798  0010C2                     i2l916:
  5799                           
  5800                           ;usb_device.c: 2196: if(inPipes[0].info.bits.busy == 1)
  5801  0010C2  0100               	movlb	0	; () banked
  5802  0010C4  AF75               	btfss	(_inPipes+3)& (0+255),7,b	;volatile
  5803  0010C6  0012               	return	
  5804                           
  5805                           ; BSR set to: 0
  5806                           ;usb_device.c: 2197: {
  5807                           ;usb_device.c: 2198: inPipes[0].pSrc.bRam = (uint8_t*)&CtrlTrfData;
  5808  0010C8  0E28               	movlw	40
  5809  0010CA  0100               	movlb	0	; () banked
  5810  0010CC  6F72               	movwf	_inPipes& (0+255),b	;volatile
  5811  0010CE  0E04               	movlw	4
  5812  0010D0  0100               	movlb	0	; () banked
  5813  0010D2  6F73               	movwf	(_inPipes+1)& (0+255),b	;volatile
  5814                           
  5815                           ; BSR set to: 0
  5816                           ;usb_device.c: 2199: inPipes[0].info.bits.ctrl_trf_mem = 0x01;
  5817  0010D4  0100               	movlb	0	; () banked
  5818  0010D6  8175               	bsf	(_inPipes+3)& (0+255),0,b	;volatile
  5819                           
  5820                           ; BSR set to: 0
  5821                           ;usb_device.c: 2200: inPipes[0].wCount.v[0] = 2;
  5822  0010D8  0E02               	movlw	2
  5823  0010DA  0100               	movlb	0	; () banked
  5824  0010DC  6F76               	movwf	(_inPipes+4)& (0+255),b	;volatile
  5825  0010DE  0012               	return	
  5826  0010E0                     __end_of_USBStdGetStatusHandler:
  5827                           	opt stack 0
  5828                           pclatu	equ	0xFFB
  5829                           pclath	equ	0xFFA
  5830                           tblptru	equ	0xFF8
  5831                           tblptrh	equ	0xFF7
  5832                           tblptrl	equ	0xFF6
  5833                           tablat	equ	0xFF5
  5834                           prodh	equ	0xFF4
  5835                           prodl	equ	0xFF3
  5836                           intcon	equ	0xFF2
  5837                           postinc0	equ	0xFEE
  5838                           fsr0h	equ	0xFEA
  5839                           fsr0l	equ	0xFE9
  5840                           wreg	equ	0xFE8
  5841                           indf1	equ	0xFE7
  5842                           postdec1	equ	0xFE5
  5843                           fsr1h	equ	0xFE2
  5844                           fsr1l	equ	0xFE1
  5845                           indf2	equ	0xFDF
  5846                           postinc2	equ	0xFDE
  5847                           postdec2	equ	0xFDD
  5848                           plusw2	equ	0xFDB
  5849                           fsr2h	equ	0xFDA
  5850                           fsr2l	equ	0xFD9
  5851                           status	equ	0xFD8
  5852                           
  5853 ;; *************** function _USBStdGetDscHandler *****************
  5854 ;; Defined at:
  5855 ;;		line 2061 in file "../../../../../../framework/usb/src/usb_device.c"
  5856 ;; Parameters:    Size  Location     Type
  5857 ;;		None
  5858 ;; Auto vars:     Size  Location     Type
  5859 ;;		None
  5860 ;; Return value:  Size  Location     Type
  5861 ;;		None               void
  5862 ;; Registers used:
  5863 ;;		wreg, fsr0l, fsr0h, status,2, status,0, tblptrl, tblptrh, tblptru, prodl, prodh
  5864 ;; Tracked objects:
  5865 ;;		On entry : 0/0
  5866 ;;		On exit  : 0/0
  5867 ;;		Unchanged: 0/0
  5868 ;; Data sizes:     COMRAM   BANK0   BANK1   BANK2   BANK3   BANK4   BANK5   BANK6   BANK7
  5869 ;;      Params:         0       0       0       0       0       0       0       0       0
  5870 ;;      Locals:         0       0       0       0       0       0       0       0       0
  5871 ;;      Temps:          2       0       0       0       0       0       0       0       0
  5872 ;;      Totals:         2       0       0       0       0       0       0       0       0
  5873 ;;Total ram usage:        2 bytes
  5874 ;; Hardware stack levels used:    1
  5875 ;; This function calls:
  5876 ;;		Nothing
  5877 ;; This function is called by:
  5878 ;;		_USBCheckStdRequest
  5879 ;; This function uses a non-reentrant model
  5880 ;;
  5881                           
  5882                           	psect	text32
  5883  000544                     __ptext32:
  5884                           	opt stack 0
  5885  000544                     _USBStdGetDscHandler:
  5886                           	opt stack 22
  5887                           
  5888                           ;usb_device.c: 2063: if(SetupPkt.bmRequestType == 0x80)
  5889                           
  5890                           ; BSR set to: 0
  5891                           ;incstack = 0
  5892  000544  0E80               	movlw	128
  5893  000546  0104               	movlb	4	; () banked
  5894  000548  1920               	xorwf	32,w,b	;volatile
  5895  00054A  A4D8               	btfss	status,2,c
  5896  00054C  0012               	return	
  5897                           
  5898                           ; BSR set to: 4
  5899                           ;usb_device.c: 2064: {
  5900                           ;usb_device.c: 2065: inPipes[0].info.Val = 0x00 | 0x80 | 0x40;
  5901  00054E  0EC0               	movlw	192
  5902  000550  0100               	movlb	0	; () banked
  5903  000552  6F75               	movwf	(_inPipes+3)& (0+255),b	;volatile
  5904                           
  5905                           ;usb_device.c: 2067: switch(SetupPkt.bDescriptorType)
  5906  000554  D089               	goto	i2l4121
  5907  000556                     i2l4095:
  5908                           
  5909                           ;usb_device.c: 2073: inPipes[0].pSrc.bRom = (const uint8_t*)&device_dsc;
  5910  000556  0EE8               	movlw	low _device_dsc
  5911  000558  0100               	movlb	0	; () banked
  5912  00055A  6F72               	movwf	_inPipes& (0+255),b	;volatile
  5913  00055C  0E7F               	movlw	high _device_dsc
  5914  00055E  0100               	movlb	0	; () banked
  5915  000560  6F73               	movwf	(_inPipes+1)& (0+255),b	;volatile
  5916                           
  5917                           ; BSR set to: 0
  5918                           ;usb_device.c: 2075: inPipes[0].wCount.Val = sizeof(device_dsc);
  5919  000562  0E00               	movlw	0
  5920  000564  0100               	movlb	0	; () banked
  5921  000566  6F77               	movwf	(_inPipes+5)& (0+255),b	;volatile
  5922  000568  0E12               	movlw	18
  5923  00056A  6F76               	movwf	(_inPipes+4)& (0+255),b	;volatile
  5924                           
  5925                           ;usb_device.c: 2076: break;
  5926  00056C  0012               	return	
  5927  00056E                     i2l4099:
  5928                           
  5929                           ;usb_device.c: 2081: if(SetupPkt.bDscIndex < 1)
  5930  00056E  0104               	movlb	4	; () banked
  5931  000570  5122               	movf	34,w,b	;volatile
  5932  000572  A4D8               	btfss	status,2,c
  5933  000574  D044               	goto	i2l4107
  5934                           
  5935                           ; BSR set to: 4
  5936                           ;usb_device.c: 2082: {
  5937                           ;usb_device.c: 2084: inPipes[0].pSrc.bRom = *(USB_CD_Ptr+SetupPkt.bDscIndex);
  5938  000576  0104               	movlb	4	; () banked
  5939  000578  5122               	movf	34,w,b	;volatile
  5940  00057A  0D02               	mullw	2
  5941  00057C  0EF7               	movlw	low _USB_CD_Ptr
  5942  00057E  24F3               	addwf	prodl,w,c
  5943  000580  6EF6               	movwf	tblptrl,c
  5944  000582  0E7E               	movlw	high _USB_CD_Ptr
  5945  000584  20F4               	addwfc	prodh,w,c
  5946  000586  6EF7               	movwf	tblptrh,c
  5947  000588                     	if	0	;There are less than 3 active tblptr bytes
  5948  000588                     	endif
  5949  000588  0009               	tblrd		*+
  5950  00058A  CFF5 F072          	movff	tablat,_inPipes	;volatile
  5951  00058E  000A               	tblrd		*-
  5952  000590  CFF5 F073          	movff	tablat,_inPipes+1	;volatile
  5953                           
  5954                           ; BSR set to: 4
  5955                           ;usb_device.c: 2092: inPipes[0].wCount.byte.LB = *(inPipes[0].pSrc.bRom+2);
  5956  000594  0E02               	movlw	2
  5957  000596  0100               	movlb	0	; () banked
  5958  000598  2572               	addwf	_inPipes& (0+255),w,b	;volatile
  5959  00059A  6E01               	movwf	??_USBStdGetDscHandler& (0+255),c
  5960  00059C  0E00               	movlw	0
  5961  00059E  0100               	movlb	0	; () banked
  5962  0005A0  2173               	addwfc	(_inPipes+1)& (0+255),w,b	;volatile
  5963  0005A2  6E02               	movwf	(??_USBStdGetDscHandler+1)& (0+255),c
  5964  0005A4  C001  FFF6         	movff	??_USBStdGetDscHandler,tblptrl
  5965  0005A8  C002  FFF7         	movff	??_USBStdGetDscHandler+1,tblptrh
  5966  0005AC  6AF8               	clrf	tblptru,c
  5967  0005AE  0E07               	movlw	(high __ramtop+-1)
  5968  0005B0  64F7               	cpfsgt	tblptrh,c
  5969  0005B2  D003               	bra	i2u316_47
  5970  0005B4  0008               	tblrd		*
  5971  0005B6  50F5               	movf	tablat,w,c
  5972  0005B8  D005               	bra	i2u316_40
  5973  0005BA                     i2u316_47:
  5974  0005BA  CFF6 FFE9          	movff	tblptrl,fsr0l
  5975  0005BE  CFF7 FFEA          	movff	tblptrh,fsr0h
  5976  0005C2  50EF               	movf	indf0,w,c
  5977  0005C4                     i2u316_40:
  5978  0005C4  0100               	movlb	0	; () banked
  5979  0005C6  6F76               	movwf	(_inPipes+4)& (0+255),b	;volatile
  5980                           
  5981                           ; BSR set to: 0
  5982                           ;usb_device.c: 2093: inPipes[0].wCount.byte.HB = *(inPipes[0].pSrc.bRom+3);
  5983  0005C8  0E03               	movlw	3
  5984  0005CA  0100               	movlb	0	; () banked
  5985  0005CC  2572               	addwf	_inPipes& (0+255),w,b	;volatile
  5986  0005CE  6E01               	movwf	??_USBStdGetDscHandler& (0+255),c
  5987  0005D0  0E00               	movlw	0
  5988  0005D2  0100               	movlb	0	; () banked
  5989  0005D4  2173               	addwfc	(_inPipes+1)& (0+255),w,b	;volatile
  5990  0005D6  6E02               	movwf	(??_USBStdGetDscHandler+1)& (0+255),c
  5991  0005D8  C001  FFF6         	movff	??_USBStdGetDscHandler,tblptrl
  5992  0005DC  C002  FFF7         	movff	??_USBStdGetDscHandler+1,tblptrh
  5993  0005E0  6AF8               	clrf	tblptru,c
  5994  0005E2  0E07               	movlw	(high __ramtop+-1)
  5995  0005E4  64F7               	cpfsgt	tblptrh,c
  5996  0005E6  D003               	bra	i2u317_47
  5997  0005E8  0008               	tblrd		*
  5998  0005EA  50F5               	movf	tablat,w,c
  5999  0005EC  D005               	bra	i2u317_40
  6000  0005EE                     i2u317_47:
  6001  0005EE  CFF6 FFE9          	movff	tblptrl,fsr0l
  6002  0005F2  CFF7 FFEA          	movff	tblptrh,fsr0h
  6003  0005F6  50EF               	movf	indf0,w,c
  6004  0005F8                     i2u317_40:
  6005  0005F8  0100               	movlb	0	; () banked
  6006  0005FA  6F77               	movwf	(_inPipes+5)& (0+255),b	;volatile
  6007                           
  6008                           ;usb_device.c: 2094: }
  6009  0005FC  0012               	return	
  6010  0005FE                     i2l4107:
  6011                           
  6012                           ;usb_device.c: 2095: else
  6013                           ;usb_device.c: 2096: {
  6014                           ;usb_device.c: 2097: inPipes[0].info.Val = 0;
  6015  0005FE  0E00               	movlw	0
  6016  000600  0100               	movlb	0	; () banked
  6017  000602  6F75               	movwf	(_inPipes+3)& (0+255),b	;volatile
  6018                           
  6019                           ; BSR set to: 0
  6020                           ;usb_device.c: 2098: }
  6021                           ;usb_device.c: 2099: break;
  6022  000604  0012               	return	
  6023  000606                     i2l4109:
  6024                           
  6025                           ;usb_device.c: 2104: if(SetupPkt.bDscIndex<3)
  6026  000606  0E03               	movlw	3
  6027  000608  0104               	movlb	4	; () banked
  6028  00060A  6122               	cpfslt	34,b	;volatile
  6029  00060C  D025               	goto	i2l4115
  6030                           
  6031                           ; BSR set to: 4
  6032                           ;usb_device.c: 2105: {
  6033                           ;usb_device.c: 2107: inPipes[0].pSrc.bRom = *(USB_SD_Ptr+SetupPkt.bDscIndex);
  6034  00060E  0104               	movlb	4	; () banked
  6035  000610  5122               	movf	34,w,b	;volatile
  6036  000612  0D02               	mullw	2
  6037  000614  0EE9               	movlw	low _USB_SD_Ptr
  6038  000616  24F3               	addwf	prodl,w,c
  6039  000618  6EF6               	movwf	tblptrl,c
  6040  00061A  0E7E               	movlw	high _USB_SD_Ptr
  6041  00061C  20F4               	addwfc	prodh,w,c
  6042  00061E  6EF7               	movwf	tblptrh,c
  6043  000620                     	if	0	;There are less than 3 active tblptr bytes
  6044  000620                     	endif
  6045  000620  0009               	tblrd		*+
  6046  000622  CFF5 F072          	movff	tablat,_inPipes	;volatile
  6047  000626  000A               	tblrd		*-
  6048  000628  CFF5 F073          	movff	tablat,_inPipes+1	;volatile
  6049                           
  6050                           ; BSR set to: 4
  6051                           ;usb_device.c: 2109: inPipes[0].wCount.Val = *inPipes[0].pSrc.bRom;
  6052  00062C  C072  FFF6         	movff	_inPipes,tblptrl	;volatile
  6053  000630  C073  FFF7         	movff	_inPipes+1,tblptrh	;volatile
  6054  000634  6AF8               	clrf	tblptru,c
  6055  000636  0E07               	movlw	(high __ramtop+-1)
  6056  000638  64F7               	cpfsgt	tblptrh,c
  6057  00063A  D003               	bra	i2u319_47
  6058  00063C  0008               	tblrd		*
  6059  00063E  50F5               	movf	tablat,w,c
  6060  000640  D005               	bra	i2u319_40
  6061  000642                     i2u319_47:
  6062  000642  CFF6 FFE9          	movff	tblptrl,fsr0l
  6063  000646  CFF7 FFEA          	movff	tblptrh,fsr0h
  6064  00064A  50EF               	movf	indf0,w,c
  6065  00064C                     i2u319_40:
  6066  00064C  6E01               	movwf	??_USBStdGetDscHandler& (0+255),c
  6067  00064E  5001               	movf	??_USBStdGetDscHandler,w,c
  6068  000650  0100               	movlb	0	; () banked
  6069  000652  6F76               	movwf	(_inPipes+4)& (0+255),b	;volatile
  6070  000654  6B77               	clrf	(_inPipes+5)& (0+255),b	;volatile
  6071                           
  6072                           ;usb_device.c: 2110: }
  6073  000656  0012               	return	
  6074  000658                     i2l4115:
  6075                           
  6076                           ;usb_device.c: 2120: else
  6077                           ;usb_device.c: 2121: {
  6078                           ;usb_device.c: 2122: inPipes[0].info.Val = 0;
  6079  000658  0E00               	movlw	0
  6080  00065A  0100               	movlb	0	; () banked
  6081  00065C  6F75               	movwf	(_inPipes+3)& (0+255),b	;volatile
  6082                           
  6083                           ; BSR set to: 0
  6084                           ;usb_device.c: 2123: }
  6085                           ;usb_device.c: 2124: break;
  6086  00065E  0012               	return	
  6087  000660                     i2l4117:
  6088                           
  6089                           ;usb_device.c: 2126: inPipes[0].info.Val = 0;
  6090  000660  0E00               	movlw	0
  6091  000662  0100               	movlb	0	; () banked
  6092  000664  6F75               	movwf	(_inPipes+3)& (0+255),b	;volatile
  6093                           
  6094                           ; BSR set to: 0
  6095                           ;usb_device.c: 2128: }
  6096                           
  6097                           ;usb_device.c: 2127: break;
  6098  000666  0012               	return	
  6099  000668                     i2l4121:
  6100                           
  6101                           ; BSR set to: 0
  6102  000668  0104               	movlb	4	; () banked
  6103  00066A  5123               	movf	35,w,b	;volatile
  6104                           
  6105                           ; Switch size 1, requested type "space"
  6106                           ; Number of cases is 3, Range of values is 1 to 3
  6107                           ; switch strategies available:
  6108                           ; Name         Instructions Cycles
  6109                           ; simple_byte           10     6 (average)
  6110                           ;	Chosen strategy is simple_byte
  6111  00066C  0A01               	xorlw	1	; case 1
  6112  00066E  B4D8               	btfsc	status,2,c
  6113  000670  D772               	goto	i2l4095
  6114  000672  0A03               	xorlw	3	; case 2
  6115  000674  B4D8               	btfsc	status,2,c
  6116  000676  D77B               	goto	i2l4099
  6117  000678  0A01               	xorlw	1	; case 3
  6118  00067A  B4D8               	btfsc	status,2,c
  6119  00067C  D7C4               	goto	i2l4109
  6120  00067E  D7F0               	goto	i2l4117
  6121  000680                     __end_of_USBStdGetDscHandler:
  6122                           	opt stack 0
  6123                           pclatu	equ	0xFFB
  6124                           pclath	equ	0xFFA
  6125                           tblptru	equ	0xFF8
  6126                           tblptrh	equ	0xFF7
  6127                           tblptrl	equ	0xFF6
  6128                           tablat	equ	0xFF5
  6129                           prodh	equ	0xFF4
  6130                           prodl	equ	0xFF3
  6131                           intcon	equ	0xFF2
  6132                           indf0	equ	0xFEF
  6133                           postinc0	equ	0xFEE
  6134                           fsr0h	equ	0xFEA
  6135                           fsr0l	equ	0xFE9
  6136                           wreg	equ	0xFE8
  6137                           indf1	equ	0xFE7
  6138                           postdec1	equ	0xFE5
  6139                           fsr1h	equ	0xFE2
  6140                           fsr1l	equ	0xFE1
  6141                           indf2	equ	0xFDF
  6142                           postinc2	equ	0xFDE
  6143                           postdec2	equ	0xFDD
  6144                           plusw2	equ	0xFDB
  6145                           fsr2h	equ	0xFDA
  6146                           fsr2l	equ	0xFD9
  6147                           status	equ	0xFD8
  6148                           
  6149 ;; *************** function _USBStdFeatureReqHandler *****************
  6150 ;; Defined at:
  6151 ;;		line 2771 in file "../../../../../../framework/usb/src/usb_device.c"
  6152 ;; Parameters:    Size  Location     Type
  6153 ;;		None
  6154 ;; Auto vars:     Size  Location     Type
  6155 ;;  p               2   26[COMRAM] PTR struct __BDT
  6156 ;;		 -> BDT(32), NULL(0), 
  6157 ;;  pUEP            2   23[COMRAM] PTR unsigned char 
  6158 ;;		 -> UEP0(1), 
  6159 ;;  current_ep_d    1   25[COMRAM] struct .
  6160 ;; Return value:  Size  Location     Type
  6161 ;;		None               void
  6162 ;; Registers used:
  6163 ;;		wreg, fsr2l, fsr2h, status,2, status,0, prodl, prodh, cstack
  6164 ;; Tracked objects:
  6165 ;;		On entry : 0/0
  6166 ;;		On exit  : 0/0
  6167 ;;		Unchanged: 0/0
  6168 ;; Data sizes:     COMRAM   BANK0   BANK1   BANK2   BANK3   BANK4   BANK5   BANK6   BANK7
  6169 ;;      Params:         0       0       0       0       0       0       0       0       0
  6170 ;;      Locals:         5       0       0       0       0       0       0       0       0
  6171 ;;      Temps:          1       0       0       0       0       0       0       0       0
  6172 ;;      Totals:         6       0       0       0       0       0       0       0       0
  6173 ;;Total ram usage:        6 bytes
  6174 ;; Hardware stack levels used:    1
  6175 ;; Hardware stack levels required when called:    5
  6176 ;; This function calls:
  6177 ;;		_USER_USB_CALLBACK_EVENT_HANDLER
  6178 ;; This function is called by:
  6179 ;;		_USBCheckStdRequest
  6180 ;; This function uses a non-reentrant model
  6181 ;;
  6182                           
  6183                           	psect	text33
  6184  00001A                     __ptext33:
  6185                           	opt stack 0
  6186  00001A                     _USBStdFeatureReqHandler:
  6187                           	opt stack 17
  6188                           
  6189                           ;usb_device.c: 2773: BDT_ENTRY *p;
  6190                           ;usb_device.c: 2774: EP_STATUS current_ep_data;
  6191                           ;usb_device.c: 2778: unsigned char* pUEP;
  6192                           ;usb_device.c: 2816: if((SetupPkt.bFeature == 1)&&
  6193                           ;usb_device.c: 2817: (SetupPkt.Recipient == (0x00)))
  6194                           
  6195                           ;incstack = 0
  6196  00001A  0104               	movlb	4	; () banked
  6197  00001C  0522               	decf	34,w,b	;volatile
  6198  00001E  A4D8               	btfss	status,2,c
  6199  000020  D011               	goto	i2l990
  6200                           
  6201                           ; BSR set to: 4
  6202  000022  0104               	movlb	4	; () banked
  6203  000024  5120               	movf	32,w,b	;volatile
  6204  000026  0B1F               	andlw	31
  6205  000028  0900               	iorlw	0
  6206  00002A  A4D8               	btfss	status,2,c
  6207  00002C  D00B               	goto	i2l990
  6208                           
  6209                           ; BSR set to: 4
  6210                           ;usb_device.c: 2818: {
  6211                           ;usb_device.c: 2819: inPipes[0].info.bits.busy = 1;
  6212  00002E  0100               	movlb	0	; () banked
  6213  000030  8F75               	bsf	(_inPipes+3)& (0+255),7,b	;volatile
  6214                           
  6215                           ; BSR set to: 0
  6216                           ;usb_device.c: 2820: if(SetupPkt.bRequest == 3)
  6217  000032  0E03               	movlw	3
  6218  000034  0104               	movlb	4	; () banked
  6219  000036  1921               	xorwf	33,w,b	;volatile
  6220  000038  A4D8               	btfss	status,2,c
  6221  00003A  D002               	goto	i2l4161
  6222                           
  6223                           ; BSR set to: 4
  6224                           ;usb_device.c: 2821: RemoteWakeup = 1;
  6225  00003C  0E01               	movlw	1
  6226  00003E  D001               	goto	L3
  6227  000040                     i2l4161:
  6228                           
  6229                           ; BSR set to: 4
  6230                           ;usb_device.c: 2822: else
  6231                           ;usb_device.c: 2823: RemoteWakeup = 0;
  6232  000040  0E00               	movlw	0
  6233  000042                     L3:
  6234  000042  6E4C               	movwf	_RemoteWakeup,c	;volatile
  6235  000044                     i2l990:
  6236                           
  6237                           ; BSR set to: 4
  6238                           ;usb_device.c: 2824: }
  6239                           ;usb_device.c: 2827: if((SetupPkt.bFeature == 0)&&
  6240                           ;usb_device.c: 2828: (SetupPkt.Recipient == (0x02))&&
  6241                           ;usb_device.c: 2829: (SetupPkt.EPNum != 0) && (SetupPkt.EPNum <= 1)&&
  6242                           ;usb_device.c: 2830: (USBDeviceState == CONFIGURED_STATE))
  6243  000044  0104               	movlb	4	; () banked
  6244  000046  5122               	movf	34,w,b	;volatile
  6245  000048  A4D8               	btfss	status,2,c
  6246  00004A  0012               	return	
  6247                           
  6248                           ; BSR set to: 4
  6249  00004C  0104               	movlb	4	; () banked
  6250  00004E  5120               	movf	32,w,b	;volatile
  6251  000050  0B1F               	andlw	31
  6252  000052  0A02               	xorlw	2
  6253  000054  A4D8               	btfss	status,2,c
  6254  000056  0012               	return	
  6255                           
  6256                           ; BSR set to: 4
  6257  000058  0104               	movlb	4	; () banked
  6258  00005A  5124               	movf	36,w,b	;volatile
  6259  00005C  0B0F               	andlw	15
  6260  00005E  0900               	iorlw	0
  6261  000060  B4D8               	btfsc	status,2,c
  6262  000062  0012               	return	
  6263                           
  6264                           ; BSR set to: 4
  6265  000064  0104               	movlb	4	; () banked
  6266  000066  5124               	movf	36,w,b	;volatile
  6267  000068  0B0F               	andlw	15
  6268  00006A  6E17               	movwf	??_USBStdFeatureReqHandler& (0+255),c
  6269  00006C  0E02               	movlw	2
  6270  00006E  6017               	cpfslt	??_USBStdFeatureReqHandler,c
  6271  000070  0012               	return	
  6272                           
  6273                           ; BSR set to: 4
  6274  000072  0E20               	movlw	32
  6275  000074  1851               	xorwf	_USBDeviceState,w,c	;volatile
  6276  000076  A4D8               	btfss	status,2,c
  6277  000078  0012               	return	
  6278                           
  6279                           ; BSR set to: 4
  6280                           ;usb_device.c: 2831: {
  6281                           ;usb_device.c: 2834: inPipes[0].info.bits.busy = 1;
  6282  00007A  0100               	movlb	0	; () banked
  6283  00007C  8F75               	bsf	(_inPipes+3)& (0+255),7,b	;volatile
  6284                           
  6285                           ;usb_device.c: 2837: if(SetupPkt.EPDir == 0)
  6286  00007E  0104               	movlb	4	; () banked
  6287  000080  BF24               	btfsc	36,7,b	;volatile
  6288  000082  D01B               	goto	i2l4175
  6289                           
  6290                           ; BSR set to: 4
  6291                           ;usb_device.c: 2838: {
  6292                           ;usb_device.c: 2839: p = (BDT_ENTRY*)pBDTEntryOut[SetupPkt.EPNum];
  6293  000084  0104               	movlb	4	; () banked
  6294  000086  5124               	movf	36,w,b	;volatile
  6295  000088  0B0F               	andlw	15
  6296  00008A  6E17               	movwf	??_USBStdFeatureReqHandler& (0+255),c
  6297  00008C  5017               	movf	??_USBStdFeatureReqHandler,w,c
  6298  00008E  0D02               	mullw	2
  6299  000090  0E7C               	movlw	low _pBDTEntryOut
  6300  000092  24F3               	addwf	prodl,w,c
  6301  000094  6ED9               	movwf	fsr2l,c
  6302  000096  0E00               	movlw	high _pBDTEntryOut
  6303  000098  20F4               	addwfc	prodh,w,c
  6304  00009A  6EDA               	movwf	fsr2h,c
  6305  00009C  CFDE F01B          	movff	postinc2,USBStdFeatureReqHandler@p
  6306  0000A0  CFDD F01C          	movff	postdec2,USBStdFeatureReqHandler@p+1
  6307                           
  6308                           ;usb_device.c: 2840: current_ep_data.Val = ep_data_out[SetupPkt.EPNum].Val;
  6309  0000A4  0104               	movlb	4	; () banked
  6310  0000A6  5124               	movf	36,w,b	;volatile
  6311  0000A8  0B0F               	andlw	15
  6312  0000AA  6E17               	movwf	??_USBStdFeatureReqHandler& (0+255),c
  6313  0000AC  5017               	movf	??_USBStdFeatureReqHandler,w,c
  6314  0000AE  0D01               	mullw	1
  6315  0000B0  0E91               	movlw	low _ep_data_out
  6316  0000B2  24F3               	addwf	prodl,w,c
  6317  0000B4  6ED9               	movwf	fsr2l,c
  6318  0000B6  0E00               	movlw	high _ep_data_out
  6319  0000B8  D01A               	goto	L4
  6320  0000BA                     i2l4175:
  6321                           
  6322                           ; BSR set to: 4
  6323                           ;usb_device.c: 2842: else
  6324                           ;usb_device.c: 2843: {
  6325                           ;usb_device.c: 2844: p = (BDT_ENTRY*)pBDTEntryIn[SetupPkt.EPNum];
  6326  0000BA  0104               	movlb	4	; () banked
  6327  0000BC  5124               	movf	36,w,b	;volatile
  6328  0000BE  0B0F               	andlw	15
  6329  0000C0  6E17               	movwf	??_USBStdFeatureReqHandler& (0+255),c
  6330  0000C2  5017               	movf	??_USBStdFeatureReqHandler,w,c
  6331  0000C4  0D02               	mullw	2
  6332  0000C6  0E78               	movlw	low _pBDTEntryIn
  6333  0000C8  24F3               	addwf	prodl,w,c
  6334  0000CA  6ED9               	movwf	fsr2l,c
  6335  0000CC  0E00               	movlw	high _pBDTEntryIn
  6336  0000CE  20F4               	addwfc	prodh,w,c
  6337  0000D0  6EDA               	movwf	fsr2h,c
  6338  0000D2  CFDE F01B          	movff	postinc2,USBStdFeatureReqHandler@p
  6339  0000D6  CFDD F01C          	movff	postdec2,USBStdFeatureReqHandler@p+1
  6340                           
  6341                           ;usb_device.c: 2845: current_ep_data.Val = ep_data_in[SetupPkt.EPNum].Val;
  6342  0000DA  0104               	movlb	4	; () banked
  6343  0000DC  5124               	movf	36,w,b	;volatile
  6344  0000DE  0B0F               	andlw	15
  6345  0000E0  6E17               	movwf	??_USBStdFeatureReqHandler& (0+255),c
  6346  0000E2  5017               	movf	??_USBStdFeatureReqHandler,w,c
  6347  0000E4  0D01               	mullw	1
  6348  0000E6  0E8F               	movlw	low _ep_data_in
  6349  0000E8  24F3               	addwf	prodl,w,c
  6350  0000EA  6ED9               	movwf	fsr2l,c
  6351  0000EC  0E00               	movlw	high _ep_data_in
  6352  0000EE                     L4:
  6353  0000EE  20F4               	addwfc	prodh,w,c
  6354  0000F0  6EDA               	movwf	fsr2h,c
  6355  0000F2  50DF               	movf	indf2,w,c
  6356  0000F4  6E1A               	movwf	USBStdFeatureReqHandler@current_ep_data,c
  6357                           
  6358                           ; BSR set to: 4
  6359                           ;usb_device.c: 2846: }
  6360                           ;usb_device.c: 2852: if(current_ep_data.bits.ping_pong_state == 0)
  6361                           
  6362                           ; BSR set to: 4
  6363  0000F6  B01A               	btfsc	USBStdFeatureReqHandler@current_ep_data,0,c
  6364  0000F8  D002               	goto	i2l4181
  6365                           
  6366                           ; BSR set to: 4
  6367                           ;usb_device.c: 2853: {
  6368                           ;usb_device.c: 2854: {((uint8_t_VAL*)&p)->Val &= ~0x0004;};
  6369  0000FA  941B               	bcf	USBStdFeatureReqHandler@p,2,c
  6370                           
  6371                           ;usb_device.c: 2855: }
  6372  0000FC  D001               	goto	i2l4183
  6373  0000FE                     i2l4181:
  6374                           
  6375                           ; BSR set to: 4
  6376                           ;usb_device.c: 2856: else
  6377                           ;usb_device.c: 2857: {
  6378                           ;usb_device.c: 2858: {((uint8_t_VAL*)&p)->Val |= 0x0004;};
  6379  0000FE  841B               	bsf	USBStdFeatureReqHandler@p,2,c
  6380  000100                     i2l4183:
  6381                           
  6382                           ; BSR set to: 4
  6383                           ;usb_device.c: 2859: }
  6384                           ;usb_device.c: 2864: if(SetupPkt.EPDir == 0)
  6385  000100  0104               	movlb	4	; () banked
  6386  000102  BF24               	btfsc	36,7,b	;volatile
  6387  000104  D00B               	goto	i2l4187
  6388                           
  6389                           ; BSR set to: 4
  6390                           ;usb_device.c: 2865: {
  6391                           ;usb_device.c: 2866: pBDTEntryOut[SetupPkt.EPNum] = (volatile BDT_ENTRY *)p;
  6392  000106  0104               	movlb	4	; () banked
  6393  000108  5124               	movf	36,w,b	;volatile
  6394  00010A  0B0F               	andlw	15
  6395  00010C  6E17               	movwf	??_USBStdFeatureReqHandler& (0+255),c
  6396  00010E  5017               	movf	??_USBStdFeatureReqHandler,w,c
  6397  000110  0D02               	mullw	2
  6398  000112  0E7C               	movlw	low _pBDTEntryOut
  6399  000114  24F3               	addwf	prodl,w,c
  6400  000116  6ED9               	movwf	fsr2l,c
  6401  000118  0E00               	movlw	high _pBDTEntryOut
  6402  00011A  D00A               	goto	L5
  6403  00011C                     i2l4187:
  6404                           
  6405                           ; BSR set to: 4
  6406                           ;usb_device.c: 2868: else
  6407                           ;usb_device.c: 2869: {
  6408                           ;usb_device.c: 2870: pBDTEntryIn[SetupPkt.EPNum] = (volatile BDT_ENTRY *)p;
  6409  00011C  0104               	movlb	4	; () banked
  6410  00011E  5124               	movf	36,w,b	;volatile
  6411  000120  0B0F               	andlw	15
  6412  000122  6E17               	movwf	??_USBStdFeatureReqHandler& (0+255),c
  6413  000124  5017               	movf	??_USBStdFeatureReqHandler,w,c
  6414  000126  0D02               	mullw	2
  6415  000128  0E78               	movlw	low _pBDTEntryIn
  6416  00012A  24F3               	addwf	prodl,w,c
  6417  00012C  6ED9               	movwf	fsr2l,c
  6418  00012E  0E00               	movlw	high _pBDTEntryIn
  6419  000130                     L5:
  6420  000130  20F4               	addwfc	prodh,w,c
  6421  000132  6EDA               	movwf	fsr2h,c
  6422  000134  C01B  FFDE         	movff	USBStdFeatureReqHandler@p,postinc2
  6423  000138  C01C  FFDD         	movff	USBStdFeatureReqHandler@p+1,postdec2
  6424                           
  6425                           ; BSR set to: 4
  6426                           ;usb_device.c: 2871: }
  6427                           ;usb_device.c: 2874: if(SetupPkt.bRequest == 3)
  6428                           
  6429                           ; BSR set to: 4
  6430  00013C  0E03               	movlw	3
  6431  00013E  0104               	movlb	4	; () banked
  6432  000140  1921               	xorwf	33,w,b	;volatile
  6433  000142  A4D8               	btfss	status,2,c
  6434  000144  D02F               	goto	i2l4203
  6435                           
  6436                           ; BSR set to: 4
  6437                           ;usb_device.c: 2875: {
  6438                           ;usb_device.c: 2876: if(p->STAT.UOWN == 1)
  6439  000146  C01B  FFD9         	movff	USBStdFeatureReqHandler@p,fsr2l
  6440  00014A  C01C  FFDA         	movff	USBStdFeatureReqHandler@p+1,fsr2h
  6441  00014E  AEDF               	btfss	indf2,7,c
  6442  000150  D01C               	goto	i2l4199
  6443                           
  6444                           ; BSR set to: 4
  6445                           ;usb_device.c: 2877: {
  6446                           ;usb_device.c: 2880: if(SetupPkt.EPDir == 0)
  6447  000152  0104               	movlb	4	; () banked
  6448  000154  BF24               	btfsc	36,7,b	;volatile
  6449  000156  D00B               	goto	i2l4197
  6450                           
  6451                           ; BSR set to: 4
  6452                           ;usb_device.c: 2881: {
  6453                           ;usb_device.c: 2882: ep_data_out[SetupPkt.EPNum].bits.transfer_terminated = 1;
  6454  000158  0104               	movlb	4	; () banked
  6455  00015A  5124               	movf	36,w,b	;volatile
  6456  00015C  0B0F               	andlw	15
  6457  00015E  6E17               	movwf	??_USBStdFeatureReqHandler& (0+255),c
  6458  000160  5017               	movf	??_USBStdFeatureReqHandler,w,c
  6459  000162  0D01               	mullw	1
  6460  000164  0E91               	movlw	low _ep_data_out
  6461  000166  24F3               	addwf	prodl,w,c
  6462  000168  6ED9               	movwf	fsr2l,c
  6463  00016A  0E00               	movlw	high _ep_data_out
  6464  00016C  D00A               	goto	L6
  6465  00016E                     i2l4197:
  6466                           
  6467                           ;usb_device.c: 2884: else
  6468                           ;usb_device.c: 2885: {
  6469                           ;usb_device.c: 2886: ep_data_in[SetupPkt.EPNum].bits.transfer_terminated = 1;
  6470  00016E  0104               	movlb	4	; () banked
  6471  000170  5124               	movf	36,w,b	;volatile
  6472  000172  0B0F               	andlw	15
  6473  000174  6E17               	movwf	??_USBStdFeatureReqHandler& (0+255),c
  6474  000176  5017               	movf	??_USBStdFeatureReqHandler,w,c
  6475  000178  0D01               	mullw	1
  6476  00017A  0E8F               	movlw	low _ep_data_in
  6477  00017C  24F3               	addwf	prodl,w,c
  6478  00017E  6ED9               	movwf	fsr2l,c
  6479  000180  0E00               	movlw	high _ep_data_in
  6480  000182                     L6:
  6481  000182  20F4               	addwfc	prodh,w,c
  6482  000184  6EDA               	movwf	fsr2h,c
  6483  000186  0100               	movlb	0	; () banked
  6484  000188  82DF               	bsf	indf2,1,c
  6485  00018A                     i2l4199:
  6486                           
  6487                           ;usb_device.c: 2887: }
  6488                           ;usb_device.c: 2888: }
  6489                           ;usb_device.c: 2891: p->STAT.Val |= 0x04;
  6490  00018A  C01B  FFD9         	movff	USBStdFeatureReqHandler@p,fsr2l
  6491  00018E  C01C  FFDA         	movff	USBStdFeatureReqHandler@p+1,fsr2h
  6492  000192  0E00               	movlw	0
  6493  000194  84DB               	bsf	plusw2,2,c
  6494                           
  6495                           ;usb_device.c: 2892: p->STAT.Val |= 0x80;
  6496  000196  C01B  FFD9         	movff	USBStdFeatureReqHandler@p,fsr2l
  6497  00019A  C01C  FFDA         	movff	USBStdFeatureReqHandler@p+1,fsr2h
  6498  00019E  0E00               	movlw	0
  6499  0001A0  8EDB               	bsf	plusw2,7,c
  6500                           
  6501                           ;usb_device.c: 2893: }
  6502  0001A2  0012               	return	
  6503  0001A4                     i2l4203:
  6504                           
  6505                           ;usb_device.c: 2894: else
  6506                           ;usb_device.c: 2895: {
  6507                           ;usb_device.c: 2899: {((uint8_t_VAL*)&p)->Val ^= 0x0004;};
  6508  0001A4  0E04               	movlw	4
  6509  0001A6  1A1B               	xorwf	USBStdFeatureReqHandler@p,f,c
  6510                           
  6511                           ;usb_device.c: 2901: if(p->STAT.UOWN == 1)
  6512  0001A8  C01B  FFD9         	movff	USBStdFeatureReqHandler@p,fsr2l
  6513  0001AC  C01C  FFDA         	movff	USBStdFeatureReqHandler@p+1,fsr2h
  6514  0001B0  AEDF               	btfss	indf2,7,c
  6515  0001B2  D01B               	goto	i2l4213
  6516                           
  6517                           ;usb_device.c: 2902: {
  6518                           ;usb_device.c: 2905: p->STAT.Val &= (~0x80);
  6519  0001B4  C01B  FFD9         	movff	USBStdFeatureReqHandler@p,fsr2l
  6520  0001B8  C01C  FFDA         	movff	USBStdFeatureReqHandler@p+1,fsr2h
  6521  0001BC  0E7F               	movlw	127
  6522  0001BE  16DF               	andwf	indf2,f,c
  6523                           
  6524                           ;usb_device.c: 2906: p->STAT.Val |= 0x40;
  6525  0001C0  C01B  FFD9         	movff	USBStdFeatureReqHandler@p,fsr2l
  6526  0001C4  C01C  FFDA         	movff	USBStdFeatureReqHandler@p+1,fsr2h
  6527  0001C8  0E00               	movlw	0
  6528  0001CA  8CDB               	bsf	plusw2,6,c
  6529                           
  6530                           ;usb_device.c: 2907: USER_USB_CALLBACK_EVENT_HANDLER(EVENT_TRANSFER_TERMINATED,p,sizeof(
      +                          p));
  6531  0001CC  0E00               	movlw	0
  6532  0001CE  6E10               	movwf	USER_USB_CALLBACK_EVENT_HANDLER@event+1,c
  6533  0001D0  0E05               	movlw	5
  6534  0001D2  6E0F               	movwf	USER_USB_CALLBACK_EVENT_HANDLER@event,c
  6535  0001D4  C01B  F011         	movff	USBStdFeatureReqHandler@p,USER_USB_CALLBACK_EVENT_HANDLER@pdata
  6536  0001D8  C01C  F012         	movff	USBStdFeatureReqHandler@p+1,USER_USB_CALLBACK_EVENT_HANDLER@pdata+1
  6537  0001DC  0E00               	movlw	0
  6538  0001DE  6E14               	movwf	USER_USB_CALLBACK_EVENT_HANDLER@size+1,c
  6539  0001E0  0E02               	movlw	2
  6540  0001E2  6E13               	movwf	USER_USB_CALLBACK_EVENT_HANDLER@size,c
  6541  0001E4  EC95  F00A         	call	_USER_USB_CALLBACK_EVENT_HANDLER	;wreg free
  6542                           
  6543                           ;usb_device.c: 2908: }
  6544  0001E8  D006               	goto	i2l4215
  6545  0001EA                     i2l4213:
  6546                           
  6547                           ;usb_device.c: 2909: else
  6548                           ;usb_device.c: 2910: {
  6549                           ;usb_device.c: 2912: p->STAT.Val |= 0x40;
  6550  0001EA  C01B  FFD9         	movff	USBStdFeatureReqHandler@p,fsr2l
  6551  0001EE  C01C  FFDA         	movff	USBStdFeatureReqHandler@p+1,fsr2h
  6552  0001F2  0E00               	movlw	0
  6553  0001F4  8CDB               	bsf	plusw2,6,c
  6554  0001F6                     i2l4215:
  6555                           
  6556                           ;usb_device.c: 2913: }
  6557                           ;usb_device.c: 2917: {((uint8_t_VAL*)&p)->Val ^= 0x0004;};
  6558  0001F6  0E04               	movlw	4
  6559  0001F8  1A1B               	xorwf	USBStdFeatureReqHandler@p,f,c
  6560                           
  6561                           ;usb_device.c: 2923: if((current_ep_data.bits.transfer_terminated != 0) || (p->STAT.UOWN
      +                           == 1))
  6562  0001FA  B21A               	btfsc	USBStdFeatureReqHandler@current_ep_data,1,c
  6563  0001FC  D006               	goto	i2l1009
  6564  0001FE  C01B  FFD9         	movff	USBStdFeatureReqHandler@p,fsr2l
  6565  000202  C01C  FFDA         	movff	USBStdFeatureReqHandler@p+1,fsr2h
  6566  000206  AEDF               	btfss	indf2,7,c
  6567  000208  D031               	goto	i2l4229
  6568  00020A                     i2l1009:
  6569                           
  6570                           ;usb_device.c: 2924: {
  6571                           ;usb_device.c: 2925: if(SetupPkt.EPDir == 0)
  6572  00020A  0104               	movlb	4	; () banked
  6573  00020C  BF24               	btfsc	36,7,b	;volatile
  6574  00020E  D00B               	goto	i2l4223
  6575                           
  6576                           ; BSR set to: 4
  6577                           ;usb_device.c: 2926: {
  6578                           ;usb_device.c: 2927: ep_data_out[SetupPkt.EPNum].bits.transfer_terminated = 0;
  6579  000210  0104               	movlb	4	; () banked
  6580  000212  5124               	movf	36,w,b	;volatile
  6581  000214  0B0F               	andlw	15
  6582  000216  6E17               	movwf	??_USBStdFeatureReqHandler& (0+255),c
  6583  000218  5017               	movf	??_USBStdFeatureReqHandler,w,c
  6584  00021A  0D01               	mullw	1
  6585  00021C  0E91               	movlw	low _ep_data_out
  6586  00021E  24F3               	addwf	prodl,w,c
  6587  000220  6ED9               	movwf	fsr2l,c
  6588  000222  0E00               	movlw	high _ep_data_out
  6589  000224  D00A               	goto	L7
  6590  000226                     i2l4223:
  6591                           
  6592                           ;usb_device.c: 2929: else
  6593                           ;usb_device.c: 2930: {
  6594                           ;usb_device.c: 2931: ep_data_in[SetupPkt.EPNum].bits.transfer_terminated = 0;
  6595  000226  0104               	movlb	4	; () banked
  6596  000228  5124               	movf	36,w,b	;volatile
  6597  00022A  0B0F               	andlw	15
  6598  00022C  6E17               	movwf	??_USBStdFeatureReqHandler& (0+255),c
  6599  00022E  5017               	movf	??_USBStdFeatureReqHandler,w,c
  6600  000230  0D01               	mullw	1
  6601  000232  0E8F               	movlw	low _ep_data_in
  6602  000234  24F3               	addwf	prodl,w,c
  6603  000236  6ED9               	movwf	fsr2l,c
  6604  000238  0E00               	movlw	high _ep_data_in
  6605  00023A                     L7:
  6606  00023A  20F4               	addwfc	prodh,w,c
  6607  00023C  6EDA               	movwf	fsr2h,c
  6608  00023E  0100               	movlb	0	; () banked
  6609  000240  92DF               	bcf	indf2,1,c
  6610                           
  6611                           ; BSR set to: 0
  6612                           ;usb_device.c: 2932: }
  6613                           ;usb_device.c: 2934: p->STAT.Val &= ~(0x80 | 0x40 | 0x04);
  6614                           
  6615                           ; BSR set to: 0
  6616  000242  C01B  FFD9         	movff	USBStdFeatureReqHandler@p,fsr2l
  6617  000246  C01C  FFDA         	movff	USBStdFeatureReqHandler@p+1,fsr2h
  6618  00024A  0E3B               	movlw	59
  6619  00024C  16DF               	andwf	indf2,f,c
  6620                           
  6621                           ; BSR set to: 0
  6622                           ;usb_device.c: 2937: USER_USB_CALLBACK_EVENT_HANDLER(EVENT_TRANSFER_TERMINATED,p,sizeof(
      +                          p));
  6623  00024E  0E00               	movlw	0
  6624  000250  6E10               	movwf	USER_USB_CALLBACK_EVENT_HANDLER@event+1,c
  6625  000252  0E05               	movlw	5
  6626  000254  6E0F               	movwf	USER_USB_CALLBACK_EVENT_HANDLER@event,c
  6627  000256  C01B  F011         	movff	USBStdFeatureReqHandler@p,USER_USB_CALLBACK_EVENT_HANDLER@pdata
  6628  00025A  C01C  F012         	movff	USBStdFeatureReqHandler@p+1,USER_USB_CALLBACK_EVENT_HANDLER@pdata+1
  6629  00025E  0E00               	movlw	0
  6630  000260  6E14               	movwf	USER_USB_CALLBACK_EVENT_HANDLER@size+1,c
  6631  000262  0E02               	movlw	2
  6632  000264  6E13               	movwf	USER_USB_CALLBACK_EVENT_HANDLER@size,c
  6633  000266  EC95  F00A         	call	_USER_USB_CALLBACK_EVENT_HANDLER	;wreg free
  6634                           
  6635                           ;usb_device.c: 2938: }
  6636  00026A  D006               	goto	i2l4231
  6637  00026C                     i2l4229:
  6638                           
  6639                           ;usb_device.c: 2939: else
  6640                           ;usb_device.c: 2940: {
  6641                           ;usb_device.c: 2942: p->STAT.Val &= ~(0x80 | 0x40 | 0x04);
  6642  00026C  C01B  FFD9         	movff	USBStdFeatureReqHandler@p,fsr2l
  6643  000270  C01C  FFDA         	movff	USBStdFeatureReqHandler@p+1,fsr2h
  6644  000274  0E3B               	movlw	59
  6645  000276  16DF               	andwf	indf2,f,c
  6646  000278                     i2l4231:
  6647                           
  6648                           ;usb_device.c: 2943: }
  6649                           ;usb_device.c: 2990: pUEP = (unsigned char*)(&UEP0+SetupPkt.EPNum);
  6650  000278  0104               	movlb	4	; () banked
  6651  00027A  5124               	movf	36,w,b	;volatile
  6652  00027C  0B0F               	andlw	15
  6653  00027E  6E17               	movwf	??_USBStdFeatureReqHandler& (0+255),c
  6654  000280  5017               	movf	??_USBStdFeatureReqHandler,w,c
  6655  000282  0D01               	mullw	1
  6656  000284  0E70               	movlw	112
  6657  000286  24F3               	addwf	prodl,w,c
  6658  000288  6E18               	movwf	USBStdFeatureReqHandler@pUEP,c
  6659  00028A  0E0F               	movlw	15
  6660  00028C  20F4               	addwfc	prodh,w,c
  6661  00028E  6E19               	movwf	USBStdFeatureReqHandler@pUEP+1,c
  6662                           
  6663                           ; BSR set to: 4
  6664                           ;usb_device.c: 2994: *pUEP &= ~0x0001;
  6665  000290  C018  FFD9         	movff	USBStdFeatureReqHandler@pUEP,fsr2l
  6666  000294  C019  FFDA         	movff	USBStdFeatureReqHandler@pUEP+1,fsr2h
  6667  000298  0EFE               	movlw	254
  6668  00029A  16DF               	andwf	indf2,f,c
  6669                           
  6670                           ; BSR set to: 4
  6671  00029C  0012               	return	
  6672  00029E                     __end_of_USBStdFeatureReqHandler:
  6673                           	opt stack 0
  6674                           pclatu	equ	0xFFB
  6675                           pclath	equ	0xFFA
  6676                           tblptru	equ	0xFF8
  6677                           tblptrh	equ	0xFF7
  6678                           tblptrl	equ	0xFF6
  6679                           tablat	equ	0xFF5
  6680                           prodh	equ	0xFF4
  6681                           prodl	equ	0xFF3
  6682                           intcon	equ	0xFF2
  6683                           indf0	equ	0xFEF
  6684                           postinc0	equ	0xFEE
  6685                           fsr0h	equ	0xFEA
  6686                           fsr0l	equ	0xFE9
  6687                           wreg	equ	0xFE8
  6688                           indf1	equ	0xFE7
  6689                           postdec1	equ	0xFE5
  6690                           fsr1h	equ	0xFE2
  6691                           fsr1l	equ	0xFE1
  6692                           indf2	equ	0xFDF
  6693                           postinc2	equ	0xFDE
  6694                           postdec2	equ	0xFDD
  6695                           plusw2	equ	0xFDB
  6696                           fsr2h	equ	0xFDA
  6697                           fsr2l	equ	0xFD9
  6698                           status	equ	0xFD8
  6699                           
  6700 ;; *************** function _USER_USB_CALLBACK_EVENT_HANDLER *****************
  6701 ;; Defined at:
  6702 ;;		line 196 in file "../src/main.c"
  6703 ;; Parameters:    Size  Location     Type
  6704 ;;  event           2   14[COMRAM] enum E4710
  6705 ;;  pdata           2   16[COMRAM] PTR void 
  6706 ;;		 -> USTATcopy(1), USBActiveConfiguration(1), BDT(32), NULL(0), 
  6707 ;;  size            2   18[COMRAM] unsigned int 
  6708 ;; Auto vars:     Size  Location     Type
  6709 ;;		None
  6710 ;; Return value:  Size  Location     Type
  6711 ;;                  1    wreg      unsigned char 
  6712 ;; Registers used:
  6713 ;;		wreg, fsr2l, fsr2h, status,2, status,0, prodl, prodh, cstack
  6714 ;; Tracked objects:
  6715 ;;		On entry : 0/0
  6716 ;;		On exit  : 0/0
  6717 ;;		Unchanged: 0/0
  6718 ;; Data sizes:     COMRAM   BANK0   BANK1   BANK2   BANK3   BANK4   BANK5   BANK6   BANK7
  6719 ;;      Params:         6       0       0       0       0       0       0       0       0
  6720 ;;      Locals:         0       0       0       0       0       0       0       0       0
  6721 ;;      Temps:          2       0       0       0       0       0       0       0       0
  6722 ;;      Totals:         8       0       0       0       0       0       0       0       0
  6723 ;;Total ram usage:        8 bytes
  6724 ;; Hardware stack levels used:    1
  6725 ;; Hardware stack levels required when called:    4
  6726 ;; This function calls:
  6727 ;;		_APP_DeviceMouseInitialize
  6728 ;;		_APP_DeviceMouseSOFHandler
  6729 ;;		_APP_LEDUpdateUSBStatus
  6730 ;;		_USBCheckHIDRequest
  6731 ;;		i2_SYSTEM_Initialize
  6732 ;; This function is called by:
  6733 ;;		_USBDeviceTasks
  6734 ;;		_USBStdSetCfgHandler
  6735 ;;		_USBSuspend
  6736 ;;		_USBWakeFromSuspend
  6737 ;;		_USBCtrlTrfSetupHandler
  6738 ;;		_USBCheckStdRequest
  6739 ;;		_USBStdFeatureReqHandler
  6740 ;; This function uses a non-reentrant model
  6741 ;;
  6742                           
  6743                           	psect	text34
  6744  00152A                     __ptext34:
  6745                           	opt stack 0
  6746  00152A                     _USER_USB_CALLBACK_EVENT_HANDLER:
  6747                           	opt stack 21
  6748                           
  6749                           ;main.c: 198: switch( (int) event )
  6750                           
  6751                           ;incstack = 0
  6752  00152A  D017               	goto	i2l3935
  6753  00152C                     i2l3921:
  6754                           
  6755                           ;main.c: 206: APP_LEDUpdateUSBStatus();
  6756  00152C  ECD6  F00A         	call	_APP_LEDUpdateUSBStatus	;wreg free
  6757                           
  6758                           ;main.c: 207: APP_DeviceMouseSOFHandler();
  6759  001530  EC40  F003         	call	_APP_DeviceMouseSOFHandler	;wreg free
  6760                           
  6761                           ;main.c: 208: break;
  6762  001534  0012               	return	
  6763  001536                     i2l3925:
  6764                           
  6765                           ;main.c: 212: APP_LEDUpdateUSBStatus();
  6766  001536  ECD6  F00A         	call	_APP_LEDUpdateUSBStatus	;wreg free
  6767                           
  6768                           ;main.c: 220: SYSTEM_Initialize(SYSTEM_STATE_USB_SUSPEND);
  6769  00153A  0E01               	movlw	1
  6770  00153C  EC6A  F00E         	call	i2_SYSTEM_Initialize
  6771                           
  6772                           ;main.c: 221: break;
  6773  001540  0012               	return	
  6774  001542                     i2l3927:
  6775                           
  6776                           ;main.c: 225: APP_LEDUpdateUSBStatus();
  6777  001542  ECD6  F00A         	call	_APP_LEDUpdateUSBStatus	;wreg free
  6778                           
  6779                           ;main.c: 231: SYSTEM_Initialize(SYSTEM_STATE_USB_RESUME);
  6780  001546  0E02               	movlw	2
  6781  001548  EC6A  F00E         	call	i2_SYSTEM_Initialize
  6782                           
  6783                           ;main.c: 232: break;
  6784  00154C  0012               	return	
  6785  00154E                     i2l3929:
  6786                           
  6787                           ;main.c: 237: APP_DeviceMouseInitialize();
  6788  00154E  ECFF  F00D         	call	_APP_DeviceMouseInitialize	;wreg free
  6789                           
  6790                           ;main.c: 241: break;
  6791                           
  6792                           ;main.c: 240: case EVENT_SET_DESCRIPTOR:
  6793                           
  6794                           ;main.c: 238: break;
  6795  001552  0012               	return	
  6796  001554                     i2l3931:
  6797                           
  6798                           ;main.c: 246: USBCheckHIDRequest();
  6799  001554  ECFD  F004         	call	_USBCheckHIDRequest	;wreg free
  6800                           
  6801                           ;main.c: 257: }
  6802                           
  6803                           ;main.c: 256: break;
  6804                           
  6805                           ;main.c: 255: default:
  6806                           
  6807                           ;main.c: 253: break;
  6808                           
  6809                           ;main.c: 252: case EVENT_TRANSFER_TERMINATED:
  6810                           
  6811                           ;main.c: 250: break;
  6812                           
  6813                           ;main.c: 249: case EVENT_BUS_ERROR:
  6814                           
  6815                           ;main.c: 247: break;
  6816  001558  0012               	return	
  6817  00155A                     i2l3935:
  6818  00155A  C00F  F015         	movff	USER_USB_CALLBACK_EVENT_HANDLER@event,??_USER_USB_CALLBACK_EVENT_HANDLER
  6819  00155E  C010  F016         	movff	USER_USB_CALLBACK_EVENT_HANDLER@event+1,??_USER_USB_CALLBACK_EVENT_HANDLER+1
  6820                           
  6821                           ; Switch on 2 bytes has been partitioned into a top level switch of size 1, and 2 sub-sw
      +                          itches
  6822                           ; Switch size 1, requested type "space"
  6823                           ; Number of cases is 2, Range of values is 0 to 127
  6824                           ; switch strategies available:
  6825                           ; Name         Instructions Cycles
  6826                           ; simple_byte            7     4 (average)
  6827                           ;	Chosen strategy is simple_byte
  6828  001562  5016               	movf	??_USER_USB_CALLBACK_EVENT_HANDLER+1,w,c
  6829  001564  0A00               	xorlw	0	; case 0
  6830  001566  B4D8               	btfsc	status,2,c
  6831  001568  D004               	goto	i2l5219
  6832  00156A  0A7F               	xorlw	127	; case 127
  6833  00156C  A4D8               	btfss	status,2,c
  6834  00156E  0012               	return	
  6835  001570  D01A               	goto	i2l5221
  6836  001572                     i2l5219:
  6837                           
  6838                           ; Switch size 1, requested type "space"
  6839                           ; Number of cases is 8, Range of values is 1 to 117
  6840                           ; switch strategies available:
  6841                           ; Name         Instructions Cycles
  6842                           ; simple_byte           25    13 (average)
  6843                           ;	Chosen strategy is simple_byte
  6844  001572  5015               	movf	??_USER_USB_CALLBACK_EVENT_HANDLER,w,c
  6845  001574  0A01               	xorlw	1	; case 1
  6846  001576  B4D8               	btfsc	status,2,c
  6847  001578  D7EA               	goto	i2l3929
  6848  00157A  0A03               	xorlw	3	; case 2
  6849  00157C  B4D8               	btfsc	status,2,c
  6850  00157E  0012               	return	
  6851  001580  0A01               	xorlw	1	; case 3
  6852  001582  B4D8               	btfsc	status,2,c
  6853  001584  D7E7               	goto	i2l3931
  6854  001586  0A06               	xorlw	6	; case 5
  6855  001588  B4D8               	btfsc	status,2,c
  6856  00158A  0012               	return	
  6857  00158C  0A77               	xorlw	119	; case 114
  6858  00158E  B4D8               	btfsc	status,2,c
  6859  001590  0012               	return	
  6860  001592  0A01               	xorlw	1	; case 115
  6861  001594  B4D8               	btfsc	status,2,c
  6862  001596  D7CA               	goto	i2l3921
  6863  001598  0A07               	xorlw	7	; case 116
  6864  00159A  B4D8               	btfsc	status,2,c
  6865  00159C  D7D2               	goto	i2l3927
  6866  00159E  0A01               	xorlw	1	; case 117
  6867  0015A0  A4D8               	btfss	status,2,c
  6868  0015A2  0012               	return	
  6869  0015A4  D7C8               	goto	i2l3925
  6870  0015A6                     i2l5221:
  6871                           
  6872                           ; Switch size 1, requested type "space"
  6873                           ; Number of cases is 1, Range of values is 255 to 255
  6874                           ; switch strategies available:
  6875                           ; Name         Instructions Cycles
  6876                           ; simple_byte            4     3 (average)
  6877                           ;	Chosen strategy is simple_byte
  6878  0015A6  5015               	movf	??_USER_USB_CALLBACK_EVENT_HANDLER,w,c
  6879  0015A8  0AFF               	xorlw	255	; case 255
  6880  0015AA  0012               	return	
  6881  0015AC                     __end_of_USER_USB_CALLBACK_EVENT_HANDLER:
  6882                           	opt stack 0
  6883                           pclatu	equ	0xFFB
  6884                           pclath	equ	0xFFA
  6885                           tblptru	equ	0xFF8
  6886                           tblptrh	equ	0xFF7
  6887                           tblptrl	equ	0xFF6
  6888                           tablat	equ	0xFF5
  6889                           prodh	equ	0xFF4
  6890                           prodl	equ	0xFF3
  6891                           intcon	equ	0xFF2
  6892                           indf0	equ	0xFEF
  6893                           postinc0	equ	0xFEE
  6894                           fsr0h	equ	0xFEA
  6895                           fsr0l	equ	0xFE9
  6896                           wreg	equ	0xFE8
  6897                           indf1	equ	0xFE7
  6898                           postdec1	equ	0xFE5
  6899                           fsr1h	equ	0xFE2
  6900                           fsr1l	equ	0xFE1
  6901                           indf2	equ	0xFDF
  6902                           postinc2	equ	0xFDE
  6903                           postdec2	equ	0xFDD
  6904                           plusw2	equ	0xFDB
  6905                           fsr2h	equ	0xFDA
  6906                           fsr2l	equ	0xFD9
  6907                           status	equ	0xFD8
  6908                           
  6909 ;; *************** function i2_SYSTEM_Initialize *****************
  6910 ;; Defined at:
  6911 ;;		line 81 in file "../src/system_config/picdem_fs_usb/system.c"
  6912 ;; Parameters:    Size  Location     Type
  6913 ;;  state           1    wreg     enum E4693
  6914 ;; Auto vars:     Size  Location     Type
  6915 ;;  state           1    1[COMRAM] enum E4693
  6916 ;; Return value:  Size  Location     Type
  6917 ;;		None               void
  6918 ;; Registers used:
  6919 ;;		wreg, status,2, status,0, cstack
  6920 ;; Tracked objects:
  6921 ;;		On entry : 0/0
  6922 ;;		On exit  : 0/0
  6923 ;;		Unchanged: 0/0
  6924 ;; Data sizes:     COMRAM   BANK0   BANK1   BANK2   BANK3   BANK4   BANK5   BANK6   BANK7
  6925 ;;      Params:         0       0       0       0       0       0       0       0       0
  6926 ;;      Locals:         1       0       0       0       0       0       0       0       0
  6927 ;;      Temps:          0       0       0       0       0       0       0       0       0
  6928 ;;      Totals:         1       0       0       0       0       0       0       0       0
  6929 ;;Total ram usage:        1 bytes
  6930 ;; Hardware stack levels used:    1
  6931 ;; Hardware stack levels required when called:    1
  6932 ;; This function calls:
  6933 ;;		i2_BUTTON_Enable
  6934 ;;		i2_LED_Enable
  6935 ;; This function is called by:
  6936 ;;		_USER_USB_CALLBACK_EVENT_HANDLER
  6937 ;; This function uses a non-reentrant model
  6938 ;;
  6939                           
  6940                           	psect	text35
  6941  001CD4                     __ptext35:
  6942                           	opt stack 0
  6943  001CD4                     i2_SYSTEM_Initialize:
  6944                           	opt stack 23
  6945                           
  6946                           ;incstack = 0
  6947                           ;i2SYSTEM_Initialize@state stored from wreg
  6948  001CD4  6E02               	movwf	i2SYSTEM_Initialize@state,c
  6949                           
  6950                           ;system.c: 83: switch(state)
  6951  001CD6  D007               	goto	i2l3917
  6952  001CD8                     i2l3913:
  6953                           
  6954                           ;system.c: 86: LED_Enable(LED_D1);
  6955  001CD8  0E01               	movlw	1
  6956  001CDA  EC4B  F00D         	call	i2_LED_Enable
  6957                           
  6958                           ;system.c: 87: BUTTON_Enable(BUTTON_S2);
  6959  001CDE  0E01               	movlw	1
  6960  001CE0  EC8D  F00E         	call	i2_BUTTON_Enable
  6961                           
  6962                           ;system.c: 95: }
  6963                           
  6964                           ;system.c: 94: break;
  6965                           
  6966                           ;system.c: 93: case SYSTEM_STATE_USB_RESUME:
  6967                           
  6968                           ;system.c: 91: break;
  6969                           
  6970                           ;system.c: 90: case SYSTEM_STATE_USB_SUSPEND:
  6971                           
  6972                           ;system.c: 88: break;
  6973  001CE4  0012               	return	
  6974  001CE6                     i2l3917:
  6975  001CE6  5002               	movf	i2SYSTEM_Initialize@state,w,c
  6976                           
  6977                           ; Switch size 1, requested type "space"
  6978                           ; Number of cases is 3, Range of values is 0 to 2
  6979                           ; switch strategies available:
  6980                           ; Name         Instructions Cycles
  6981                           ; simple_byte           10     6 (average)
  6982                           ;	Chosen strategy is simple_byte
  6983  001CE8  0A00               	xorlw	0	; case 0
  6984  001CEA  B4D8               	btfsc	status,2,c
  6985  001CEC  D7F5               	goto	i2l3913
  6986  001CEE  0A01               	xorlw	1	; case 1
  6987  001CF0  B4D8               	btfsc	status,2,c
  6988  001CF2  0012               	return	
  6989  001CF4  0A03               	xorlw	3	; case 2
  6990  001CF6  0012               	return	
  6991  001CF8                     __end_ofi2_SYSTEM_Initialize:
  6992                           	opt stack 0
  6993                           pclatu	equ	0xFFB
  6994                           pclath	equ	0xFFA
  6995                           tblptru	equ	0xFF8
  6996                           tblptrh	equ	0xFF7
  6997                           tblptrl	equ	0xFF6
  6998                           tablat	equ	0xFF5
  6999                           prodh	equ	0xFF4
  7000                           prodl	equ	0xFF3
  7001                           intcon	equ	0xFF2
  7002                           indf0	equ	0xFEF
  7003                           postinc0	equ	0xFEE
  7004                           fsr0h	equ	0xFEA
  7005                           fsr0l	equ	0xFE9
  7006                           wreg	equ	0xFE8
  7007                           indf1	equ	0xFE7
  7008                           postdec1	equ	0xFE5
  7009                           fsr1h	equ	0xFE2
  7010                           fsr1l	equ	0xFE1
  7011                           indf2	equ	0xFDF
  7012                           postinc2	equ	0xFDE
  7013                           postdec2	equ	0xFDD
  7014                           plusw2	equ	0xFDB
  7015                           fsr2h	equ	0xFDA
  7016                           fsr2l	equ	0xFD9
  7017                           status	equ	0xFD8
  7018                           
  7019 ;; *************** function i2_LED_Enable *****************
  7020 ;; Defined at:
  7021 ;;		line 257 in file "../../../../../../bsp/picdem_fs_usb/leds.c"
  7022 ;; Parameters:    Size  Location     Type
  7023 ;;  led             1    wreg     enum E2
  7024 ;; Auto vars:     Size  Location     Type
  7025 ;;  led             1    0[COMRAM] enum E2
  7026 ;; Return value:  Size  Location     Type
  7027 ;;		None               void
  7028 ;; Registers used:
  7029 ;;		wreg, status,2, status,0
  7030 ;; Tracked objects:
  7031 ;;		On entry : 0/0
  7032 ;;		On exit  : 0/0
  7033 ;;		Unchanged: 0/0
  7034 ;; Data sizes:     COMRAM   BANK0   BANK1   BANK2   BANK3   BANK4   BANK5   BANK6   BANK7
  7035 ;;      Params:         0       0       0       0       0       0       0       0       0
  7036 ;;      Locals:         1       0       0       0       0       0       0       0       0
  7037 ;;      Temps:          0       0       0       0       0       0       0       0       0
  7038 ;;      Totals:         1       0       0       0       0       0       0       0       0
  7039 ;;Total ram usage:        1 bytes
  7040 ;; Hardware stack levels used:    1
  7041 ;; This function calls:
  7042 ;;		Nothing
  7043 ;; This function is called by:
  7044 ;;		i2_SYSTEM_Initialize
  7045 ;; This function uses a non-reentrant model
  7046 ;;
  7047                           
  7048                           	psect	text36
  7049  001A96                     __ptext36:
  7050                           	opt stack 0
  7051  001A96                     i2_LED_Enable:
  7052                           	opt stack 23
  7053                           
  7054                           ;incstack = 0
  7055                           ;i2LED_Enable@led stored from wreg
  7056  001A96  6E01               	movwf	i2LED_Enable@led,c
  7057                           
  7058                           ;leds.c: 259: switch(led)
  7059  001A98  D008               	goto	i2l3737
  7060  001A9A                     i2l619:
  7061                           
  7062                           ;leds.c: 262: TRISDbits.TRISD0 = 0;
  7063  001A9A  9095               	bcf	3989,0,c	;volatile
  7064                           
  7065                           ;leds.c: 263: break;
  7066  001A9C  0012               	return	
  7067  001A9E                     i2l621:
  7068                           
  7069                           ;leds.c: 266: TRISDbits.TRISD1 = 0;
  7070  001A9E  9295               	bcf	3989,1,c	;volatile
  7071                           
  7072                           ;leds.c: 267: break;
  7073  001AA0  0012               	return	
  7074  001AA2                     i2l622:
  7075                           
  7076                           ;leds.c: 270: TRISDbits.TRISD2 = 0;
  7077  001AA2  9495               	bcf	3989,2,c	;volatile
  7078                           
  7079                           ;leds.c: 271: break;
  7080  001AA4  0012               	return	
  7081  001AA6                     i2l623:
  7082                           
  7083                           ;leds.c: 274: TRISDbits.TRISD3 = 0;
  7084  001AA6  9695               	bcf	3989,3,c	;volatile
  7085                           
  7086                           ;leds.c: 279: }
  7087                           
  7088                           ;leds.c: 278: break;
  7089                           
  7090                           ;leds.c: 277: case LED_NONE:
  7091                           
  7092                           ;leds.c: 275: break;
  7093  001AA8  0012               	return	
  7094  001AAA                     i2l3737:
  7095  001AAA  5001               	movf	i2LED_Enable@led,w,c
  7096                           
  7097                           ; Switch size 1, requested type "space"
  7098                           ; Number of cases is 5, Range of values is 0 to 4
  7099                           ; switch strategies available:
  7100                           ; Name         Instructions Cycles
  7101                           ; simple_byte           16     9 (average)
  7102                           ;	Chosen strategy is simple_byte
  7103  001AAC  0A00               	xorlw	0	; case 0
  7104  001AAE  B4D8               	btfsc	status,2,c
  7105  001AB0  0012               	return	
  7106  001AB2  0A01               	xorlw	1	; case 1
  7107  001AB4  B4D8               	btfsc	status,2,c
  7108  001AB6  D7F1               	goto	i2l619
  7109  001AB8  0A03               	xorlw	3	; case 2
  7110  001ABA  B4D8               	btfsc	status,2,c
  7111  001ABC  D7F0               	goto	i2l621
  7112  001ABE  0A01               	xorlw	1	; case 3
  7113  001AC0  B4D8               	btfsc	status,2,c
  7114  001AC2  D7EF               	goto	i2l622
  7115  001AC4  0A07               	xorlw	7	; case 4
  7116  001AC6  A4D8               	btfss	status,2,c
  7117  001AC8  0012               	return	
  7118  001ACA  D7ED               	goto	i2l623
  7119  001ACC                     __end_ofi2_LED_Enable:
  7120                           	opt stack 0
  7121                           pclatu	equ	0xFFB
  7122                           pclath	equ	0xFFA
  7123                           tblptru	equ	0xFF8
  7124                           tblptrh	equ	0xFF7
  7125                           tblptrl	equ	0xFF6
  7126                           tablat	equ	0xFF5
  7127                           prodh	equ	0xFF4
  7128                           prodl	equ	0xFF3
  7129                           intcon	equ	0xFF2
  7130                           indf0	equ	0xFEF
  7131                           postinc0	equ	0xFEE
  7132                           fsr0h	equ	0xFEA
  7133                           fsr0l	equ	0xFE9
  7134                           wreg	equ	0xFE8
  7135                           indf1	equ	0xFE7
  7136                           postdec1	equ	0xFE5
  7137                           fsr1h	equ	0xFE2
  7138                           fsr1l	equ	0xFE1
  7139                           indf2	equ	0xFDF
  7140                           postinc2	equ	0xFDE
  7141                           postdec2	equ	0xFDD
  7142                           plusw2	equ	0xFDB
  7143                           fsr2h	equ	0xFDA
  7144                           fsr2l	equ	0xFD9
  7145                           status	equ	0xFD8
  7146                           
  7147 ;; *************** function i2_BUTTON_Enable *****************
  7148 ;; Defined at:
  7149 ;;		line 128 in file "../../../../../../bsp/picdem_fs_usb/buttons.c"
  7150 ;; Parameters:    Size  Location     Type
  7151 ;;  button          1    wreg     enum E4441
  7152 ;; Auto vars:     Size  Location     Type
  7153 ;;  button          1    0[COMRAM] enum E4441
  7154 ;; Return value:  Size  Location     Type
  7155 ;;		None               void
  7156 ;; Registers used:
  7157 ;;		wreg, status,2, status,0
  7158 ;; Tracked objects:
  7159 ;;		On entry : 0/0
  7160 ;;		On exit  : 0/0
  7161 ;;		Unchanged: 0/0
  7162 ;; Data sizes:     COMRAM   BANK0   BANK1   BANK2   BANK3   BANK4   BANK5   BANK6   BANK7
  7163 ;;      Params:         0       0       0       0       0       0       0       0       0
  7164 ;;      Locals:         1       0       0       0       0       0       0       0       0
  7165 ;;      Temps:          0       0       0       0       0       0       0       0       0
  7166 ;;      Totals:         1       0       0       0       0       0       0       0       0
  7167 ;;Total ram usage:        1 bytes
  7168 ;; Hardware stack levels used:    1
  7169 ;; This function calls:
  7170 ;;		Nothing
  7171 ;; This function is called by:
  7172 ;;		i2_SYSTEM_Initialize
  7173 ;; This function uses a non-reentrant model
  7174 ;;
  7175                           
  7176                           	psect	text37
  7177  001D1A                     __ptext37:
  7178                           	opt stack 0
  7179  001D1A                     i2_BUTTON_Enable:
  7180                           	opt stack 23
  7181                           
  7182                           ;incstack = 0
  7183                           ;i2BUTTON_Enable@button stored from wreg
  7184  001D1A  6E01               	movwf	i2BUTTON_Enable@button,c
  7185                           
  7186                           ;buttons.c: 130: switch(button)
  7187  001D1C  D004               	goto	i2l3731
  7188  001D1E                     i2l567:
  7189                           
  7190                           ;buttons.c: 133: TRISBbits.TRISB4 = 1;
  7191  001D1E  8893               	bsf	3987,4,c	;volatile
  7192                           
  7193                           ;buttons.c: 134: break;
  7194  001D20  0012               	return	
  7195  001D22                     i2l569:
  7196                           
  7197                           ;buttons.c: 137: TRISBbits.TRISB5 = 1;
  7198  001D22  8A93               	bsf	3987,5,c	;volatile
  7199                           
  7200                           ;buttons.c: 142: }
  7201                           
  7202                           ;buttons.c: 141: break;
  7203                           
  7204                           ;buttons.c: 140: case BUTTON_NONE:
  7205                           
  7206                           ;buttons.c: 138: break;
  7207  001D24  0012               	return	
  7208  001D26                     i2l3731:
  7209  001D26  5001               	movf	i2BUTTON_Enable@button,w,c
  7210                           
  7211                           ; Switch size 1, requested type "space"
  7212                           ; Number of cases is 3, Range of values is 0 to 2
  7213                           ; switch strategies available:
  7214                           ; Name         Instructions Cycles
  7215                           ; simple_byte           10     6 (average)
  7216                           ;	Chosen strategy is simple_byte
  7217  001D28  0A00               	xorlw	0	; case 0
  7218  001D2A  B4D8               	btfsc	status,2,c
  7219  001D2C  0012               	return	
  7220  001D2E  0A01               	xorlw	1	; case 1
  7221  001D30  B4D8               	btfsc	status,2,c
  7222  001D32  D7F5               	goto	i2l567
  7223  001D34  0A03               	xorlw	3	; case 2
  7224  001D36  A4D8               	btfss	status,2,c
  7225  001D38  0012               	return	
  7226  001D3A  D7F3               	goto	i2l569
  7227  001D3C                     __end_ofi2_BUTTON_Enable:
  7228                           	opt stack 0
  7229                           pclatu	equ	0xFFB
  7230                           pclath	equ	0xFFA
  7231                           tblptru	equ	0xFF8
  7232                           tblptrh	equ	0xFF7
  7233                           tblptrl	equ	0xFF6
  7234                           tablat	equ	0xFF5
  7235                           prodh	equ	0xFF4
  7236                           prodl	equ	0xFF3
  7237                           intcon	equ	0xFF2
  7238                           indf0	equ	0xFEF
  7239                           postinc0	equ	0xFEE
  7240                           fsr0h	equ	0xFEA
  7241                           fsr0l	equ	0xFE9
  7242                           wreg	equ	0xFE8
  7243                           indf1	equ	0xFE7
  7244                           postdec1	equ	0xFE5
  7245                           fsr1h	equ	0xFE2
  7246                           fsr1l	equ	0xFE1
  7247                           indf2	equ	0xFDF
  7248                           postinc2	equ	0xFDE
  7249                           postdec2	equ	0xFDD
  7250                           plusw2	equ	0xFDB
  7251                           fsr2h	equ	0xFDA
  7252                           fsr2l	equ	0xFD9
  7253                           status	equ	0xFD8
  7254                           
  7255 ;; *************** function _USBCheckHIDRequest *****************
  7256 ;; Defined at:
  7257 ;;		line 153 in file "../../../../../../framework/usb/src/usb_device_hid.c"
  7258 ;; Parameters:    Size  Location     Type
  7259 ;;		None
  7260 ;; Auto vars:     Size  Location     Type
  7261 ;;		None
  7262 ;; Return value:  Size  Location     Type
  7263 ;;		None               void
  7264 ;; Registers used:
  7265 ;;		wreg, fsr2l, fsr2h, status,2, status,0, prodl, prodh, cstack
  7266 ;; Tracked objects:
  7267 ;;		On entry : 0/0
  7268 ;;		On exit  : 0/0
  7269 ;;		Unchanged: 0/0
  7270 ;; Data sizes:     COMRAM   BANK0   BANK1   BANK2   BANK3   BANK4   BANK5   BANK6   BANK7
  7271 ;;      Params:         0       0       0       0       0       0       0       0       0
  7272 ;;      Locals:         0       0       0       0       0       0       0       0       0
  7273 ;;      Temps:          0       0       0       0       0       0       0       0       0
  7274 ;;      Totals:         0       0       0       0       0       0       0       0       0
  7275 ;;Total ram usage:        0 bytes
  7276 ;; Hardware stack levels used:    1
  7277 ;; Hardware stack levels required when called:    1
  7278 ;; This function calls:
  7279 ;;		_APP_DeviceMouseIdleRateCallback
  7280 ;; This function is called by:
  7281 ;;		_USER_USB_CALLBACK_EVENT_HANDLER
  7282 ;; This function uses a non-reentrant model
  7283 ;;
  7284                           
  7285                           	psect	text38
  7286  0009FA                     __ptext38:
  7287                           	opt stack 0
  7288  0009FA                     _USBCheckHIDRequest:
  7289                           	opt stack 23
  7290                           
  7291                           ;usb_device_hid.c: 155: if(SetupPkt.Recipient != (0x01)) return;
  7292                           
  7293                           ;incstack = 0
  7294  0009FA  0104               	movlb	4	; () banked
  7295  0009FC  5120               	movf	32,w,b	;volatile
  7296  0009FE  0B1F               	andlw	31
  7297  000A00  06E8               	decf	wreg,f,c
  7298  000A02  A4D8               	btfss	status,2,c
  7299  000A04  0012               	return	
  7300                           
  7301                           ; BSR set to: 4
  7302                           ;usb_device_hid.c: 156: if(SetupPkt.bIntfID != 0x00) return;
  7303                           
  7304                           ; BSR set to: 4
  7305                           
  7306                           ; BSR set to: 4
  7307  000A06  0104               	movlb	4	; () banked
  7308  000A08  5124               	movf	36,w,b	;volatile
  7309  000A0A  A4D8               	btfss	status,2,c
  7310  000A0C  0012               	return	
  7311                           
  7312                           ; BSR set to: 4
  7313                           ;usb_device_hid.c: 163: if(SetupPkt.bRequest == 6)
  7314                           
  7315                           ; BSR set to: 4
  7316                           
  7317                           ; BSR set to: 4
  7318  000A0E  0E06               	movlw	6
  7319  000A10  0104               	movlb	4	; () banked
  7320  000A12  1921               	xorwf	33,w,b	;volatile
  7321  000A14  B4D8               	btfsc	status,2,c
  7322  000A16  D01F               	goto	i2l3879
  7323  000A18  D027               	goto	i2l3881
  7324  000A1A                     i2l3863:
  7325                           
  7326                           ; BSR set to: 4
  7327                           ;usb_device_hid.c: 168: if(USBActiveConfiguration == 1)
  7328  000A1A  0459               	decf	_USBActiveConfiguration,w,c	;volatile
  7329  000A1C  A4D8               	btfss	status,2,c
  7330  000A1E  D024               	goto	i2l3881
  7331                           
  7332                           ; BSR set to: 4
  7333                           ;usb_device_hid.c: 169: {
  7334                           ;usb_device_hid.c: 170: { inPipes[0].pSrc.bRom = (const uint8_t*)&configDescriptor1 + 18
      +                          ; inPipes[0].wCount.Val = sizeof(USB_HID_DSC)+3; inPipes[0].info.Val = 0x40 | 0x80 | 0x0
      +                          0; };
  7335  000A20  0E9F               	movlw	low (_configDescriptor1+18)
  7336  000A22  0100               	movlb	0	; () banked
  7337  000A24  6F72               	movwf	_inPipes& (0+255),b	;volatile
  7338  000A26  0E7F               	movlw	high (_configDescriptor1+18)
  7339  000A28  0100               	movlb	0	; () banked
  7340  000A2A  6F73               	movwf	(_inPipes+1)& (0+255),b	;volatile
  7341                           
  7342                           ; BSR set to: 0
  7343  000A2C  0E00               	movlw	0
  7344  000A2E  0100               	movlb	0	; () banked
  7345  000A30  6F77               	movwf	(_inPipes+5)& (0+255),b	;volatile
  7346  000A32  0E09               	movlw	9
  7347  000A34  D00E               	goto	L8
  7348  000A36                     i2l3869:
  7349                           
  7350                           ; BSR set to: 0
  7351  000A36  0EC0               	movlw	192
  7352  000A38  0100               	movlb	0	; () banked
  7353  000A3A  6F75               	movwf	(_inPipes+3)& (0+255),b	;volatile
  7354                           
  7355                           ; BSR set to: 0
  7356                           ;usb_device_hid.c: 174: }
  7357                           ;usb_device_hid.c: 175: break;
  7358  000A3C  D015               	goto	i2l3881
  7359  000A3E                     i2l3871:
  7360                           
  7361                           ;usb_device_hid.c: 178: {
  7362                           ;usb_device_hid.c: 179: { inPipes[0].pSrc.bRom = (const uint8_t*)&hid_rpt01; inPipes[0].
      +                          wCount.Val = 50; inPipes[0].info.Val = 0x40 | 0x80 | 0x00; };
  7363  000A3E  0E2D               	movlw	low _hid_rpt01
  7364  000A40  0100               	movlb	0	; () banked
  7365  000A42  6F72               	movwf	_inPipes& (0+255),b	;volatile
  7366  000A44  0E7F               	movlw	high _hid_rpt01
  7367  000A46  0100               	movlb	0	; () banked
  7368  000A48  6F73               	movwf	(_inPipes+1)& (0+255),b	;volatile
  7369                           
  7370                           ; BSR set to: 0
  7371  000A4A  0E00               	movlw	0
  7372  000A4C  0100               	movlb	0	; () banked
  7373  000A4E  6F77               	movwf	(_inPipes+5)& (0+255),b	;volatile
  7374  000A50  0E32               	movlw	50
  7375  000A52                     L8:
  7376  000A52  6F76               	movwf	(_inPipes+4)& (0+255),b	;volatile
  7377  000A54  D7F0               	goto	i2l3869
  7378  000A56                     i2l3879:
  7379  000A56  0104               	movlb	4	; () banked
  7380  000A58  5123               	movf	35,w,b	;volatile
  7381                           
  7382                           ; Switch size 1, requested type "space"
  7383                           ; Number of cases is 3, Range of values is 33 to 35
  7384                           ; switch strategies available:
  7385                           ; Name         Instructions Cycles
  7386                           ; simple_byte           10     6 (average)
  7387                           ;	Chosen strategy is simple_byte
  7388  000A5A  0A21               	xorlw	33	; case 33
  7389  000A5C  B4D8               	btfsc	status,2,c
  7390  000A5E  D7DD               	goto	i2l3863
  7391  000A60  0A03               	xorlw	3	; case 34
  7392  000A62  B4D8               	btfsc	status,2,c
  7393  000A64  D7EC               	goto	i2l3871
  7394  000A66  0A01               	xorlw	1	; case 35
  7395  000A68                     i2l3881:
  7396                           
  7397                           ;usb_device_hid.c: 199: }
  7398                           ;usb_device_hid.c: 201: if(SetupPkt.RequestType != (0x20>>5))
  7399  000A68  0104               	movlb	4	; () banked
  7400  000A6A  3920               	swapf	32,w,b	;volatile
  7401  000A6C  32E8               	rrcf	wreg,f,c
  7402  000A6E  0B03               	andlw	3
  7403  000A70  06E8               	decf	wreg,f,c
  7404  000A72  A4D8               	btfss	status,2,c
  7405  000A74  0012               	return	
  7406  000A76  D030               	goto	i2l3909
  7407  000A78                     i2l3885:
  7408                           
  7409                           ; BSR set to: 4
  7410                           ;usb_device_hid.c: 219: { inPipes[0].pSrc.bRam = (uint8_t*)&idle_rate; inPipes[0].wCount
      +                          .Val = 1; inPipes[0].info.Val = 0x40 | 0x80 | 0x01; };
  7411  000A78  0E5D               	movlw	low _idle_rate
  7412  000A7A  0100               	movlb	0	; () banked
  7413  000A7C  6F72               	movwf	_inPipes& (0+255),b	;volatile
  7414  000A7E  0E00               	movlw	high _idle_rate
  7415  000A80  0100               	movlb	0	; () banked
  7416  000A82  6F73               	movwf	(_inPipes+1)& (0+255),b	;volatile
  7417                           
  7418                           ; BSR set to: 0
  7419  000A84  0E00               	movlw	0
  7420  000A86  0100               	movlb	0	; () banked
  7421  000A88  6F77               	movwf	(_inPipes+5)& (0+255),b	;volatile
  7422  000A8A  0E01               	movlw	1
  7423  000A8C  6F76               	movwf	(_inPipes+4)& (0+255),b	;volatile
  7424                           
  7425                           ; BSR set to: 0
  7426  000A8E  0EC1               	movlw	193
  7427  000A90  0100               	movlb	0	; () banked
  7428  000A92  6F75               	movwf	(_inPipes+3)& (0+255),b	;volatile
  7429                           
  7430                           ;usb_device_hid.c: 223: break;
  7431  000A94  0012               	return	
  7432  000A96                     i2l3891:
  7433                           
  7434                           ;usb_device_hid.c: 225: inPipes[0].info.Val = 0x00 | 0x80;
  7435  000A96  0E80               	movlw	128
  7436  000A98  0100               	movlb	0	; () banked
  7437  000A9A  6F75               	movwf	(_inPipes+3)& (0+255),b	;volatile
  7438                           
  7439                           ; BSR set to: 0
  7440                           ;usb_device_hid.c: 226: idle_rate = ((USB_SETUP_SET_IDLE_RATE*)&SetupPkt)->duration;
  7441  000A9C  C423 F05D          	movff	1059,_idle_rate
  7442                           
  7443                           ; BSR set to: 0
  7444                           ;usb_device_hid.c: 227: APP_DeviceMouseIdleRateCallback(((USB_SETUP_SET_IDLE_RATE*)&Setu
      +                          pPkt)->reportId, idle_rate);
  7445  000AA0  C05D  F001         	movff	_idle_rate,APP_DeviceMouseIdleRateCallback@idleRate
  7446  000AA4  0104               	movlb	4	; () banked
  7447  000AA6  5122               	movf	34,w,b
  7448  000AA8  EC66  F00D         	call	_APP_DeviceMouseIdleRateCallback
  7449                           
  7450                           ;usb_device_hid.c: 228: break;
  7451  000AAC  0012               	return	
  7452  000AAE                     i2l3897:
  7453                           
  7454                           ;usb_device_hid.c: 230: { inPipes[0].pSrc.bRam = (uint8_t*)&active_protocol; inPipes[0].
      +                          wCount.Val = 1; inPipes[0].info.Val = 0x00 | 0x80 | 0x01; };
  7455  000AAE  0E5C               	movlw	low _active_protocol
  7456  000AB0  0100               	movlb	0	; () banked
  7457  000AB2  6F72               	movwf	_inPipes& (0+255),b	;volatile
  7458  000AB4  0E00               	movlw	high _active_protocol
  7459  000AB6  0100               	movlb	0	; () banked
  7460  000AB8  6F73               	movwf	(_inPipes+1)& (0+255),b	;volatile
  7461                           
  7462                           ; BSR set to: 0
  7463  000ABA  0E00               	movlw	0
  7464  000ABC  0100               	movlb	0	; () banked
  7465  000ABE  6F77               	movwf	(_inPipes+5)& (0+255),b	;volatile
  7466  000AC0  0E01               	movlw	1
  7467  000AC2  6F76               	movwf	(_inPipes+4)& (0+255),b	;volatile
  7468                           
  7469                           ; BSR set to: 0
  7470  000AC4  0E81               	movlw	129
  7471  000AC6  0100               	movlb	0	; () banked
  7472  000AC8  6F75               	movwf	(_inPipes+3)& (0+255),b	;volatile
  7473                           
  7474                           ;usb_device_hid.c: 234: break;
  7475  000ACA  0012               	return	
  7476  000ACC                     i2l3903:
  7477                           
  7478                           ;usb_device_hid.c: 236: inPipes[0].info.Val = 0x00 | 0x80;
  7479  000ACC  0E80               	movlw	128
  7480  000ACE  0100               	movlb	0	; () banked
  7481  000AD0  6F75               	movwf	(_inPipes+3)& (0+255),b	;volatile
  7482                           
  7483                           ; BSR set to: 0
  7484                           ;usb_device_hid.c: 237: active_protocol = ((USB_SETUP_SET_PROTOCOL*)&SetupPkt)->protocol
      +                          ;
  7485  000AD2  C422 F05C          	movff	1058,_active_protocol
  7486                           
  7487                           ; BSR set to: 0
  7488                           ;usb_device_hid.c: 239: }
  7489                           
  7490                           ;usb_device_hid.c: 238: break;
  7491  000AD6  0012               	return	
  7492  000AD8                     i2l3909:
  7493  000AD8  0104               	movlb	4	; () banked
  7494  000ADA  5121               	movf	33,w,b	;volatile
  7495                           
  7496                           ; Switch size 1, requested type "space"
  7497                           ; Number of cases is 6, Range of values is 1 to 11
  7498                           ; switch strategies available:
  7499                           ; Name         Instructions Cycles
  7500                           ; simple_byte           19    10 (average)
  7501                           ;	Chosen strategy is simple_byte
  7502  000ADC  0A01               	xorlw	1	; case 1
  7503  000ADE  B4D8               	btfsc	status,2,c
  7504  000AE0  0012               	return	
  7505  000AE2  0A03               	xorlw	3	; case 2
  7506  000AE4  B4D8               	btfsc	status,2,c
  7507  000AE6  D7C8               	goto	i2l3885
  7508  000AE8  0A01               	xorlw	1	; case 3
  7509  000AEA  B4D8               	btfsc	status,2,c
  7510  000AEC  D7E0               	goto	i2l3897
  7511  000AEE  0A0A               	xorlw	10	; case 9
  7512  000AF0  B4D8               	btfsc	status,2,c
  7513  000AF2  0012               	return	
  7514  000AF4  0A03               	xorlw	3	; case 10
  7515  000AF6  B4D8               	btfsc	status,2,c
  7516  000AF8  D7CE               	goto	i2l3891
  7517  000AFA  0A01               	xorlw	1	; case 11
  7518  000AFC  A4D8               	btfss	status,2,c
  7519  000AFE  0012               	return	
  7520  000B00  D7E5               	goto	i2l3903
  7521  000B02                     __end_of_USBCheckHIDRequest:
  7522                           	opt stack 0
  7523                           pclatu	equ	0xFFB
  7524                           pclath	equ	0xFFA
  7525                           tblptru	equ	0xFF8
  7526                           tblptrh	equ	0xFF7
  7527                           tblptrl	equ	0xFF6
  7528                           tablat	equ	0xFF5
  7529                           prodh	equ	0xFF4
  7530                           prodl	equ	0xFF3
  7531                           intcon	equ	0xFF2
  7532                           indf0	equ	0xFEF
  7533                           postinc0	equ	0xFEE
  7534                           fsr0h	equ	0xFEA
  7535                           fsr0l	equ	0xFE9
  7536                           wreg	equ	0xFE8
  7537                           indf1	equ	0xFE7
  7538                           postdec1	equ	0xFE5
  7539                           fsr1h	equ	0xFE2
  7540                           fsr1l	equ	0xFE1
  7541                           indf2	equ	0xFDF
  7542                           postinc2	equ	0xFDE
  7543                           postdec2	equ	0xFDD
  7544                           plusw2	equ	0xFDB
  7545                           fsr2h	equ	0xFDA
  7546                           fsr2l	equ	0xFD9
  7547                           status	equ	0xFD8
  7548                           
  7549 ;; *************** function _APP_DeviceMouseIdleRateCallback *****************
  7550 ;; Defined at:
  7551 ;;		line 282 in file "../src/app_device_mouse.c"
  7552 ;; Parameters:    Size  Location     Type
  7553 ;;  reportId        1    wreg     unsigned char 
  7554 ;;  idleRate        1    0[COMRAM] unsigned char 
  7555 ;; Auto vars:     Size  Location     Type
  7556 ;;  reportId        1    3[COMRAM] unsigned char 
  7557 ;; Return value:  Size  Location     Type
  7558 ;;		None               void
  7559 ;; Registers used:
  7560 ;;		wreg, fsr2l, fsr2h, status,2, status,0, prodl, prodh
  7561 ;; Tracked objects:
  7562 ;;		On entry : 0/0
  7563 ;;		On exit  : 0/0
  7564 ;;		Unchanged: 0/0
  7565 ;; Data sizes:     COMRAM   BANK0   BANK1   BANK2   BANK3   BANK4   BANK5   BANK6   BANK7
  7566 ;;      Params:         1       0       0       0       0       0       0       0       0
  7567 ;;      Locals:         1       0       0       0       0       0       0       0       0
  7568 ;;      Temps:          2       0       0       0       0       0       0       0       0
  7569 ;;      Totals:         4       0       0       0       0       0       0       0       0
  7570 ;;Total ram usage:        4 bytes
  7571 ;; Hardware stack levels used:    1
  7572 ;; This function calls:
  7573 ;;		Nothing
  7574 ;; This function is called by:
  7575 ;;		_USBCheckHIDRequest
  7576 ;; This function uses a non-reentrant model
  7577 ;;
  7578                           
  7579                           	psect	text39
  7580  001ACC                     __ptext39:
  7581                           	opt stack 0
  7582  001ACC                     _APP_DeviceMouseIdleRateCallback:
  7583                           	opt stack 23
  7584                           
  7585                           ;incstack = 0
  7586                           ;APP_DeviceMouseIdleRateCallback@reportId stored from wreg
  7587  001ACC  6E04               	movwf	APP_DeviceMouseIdleRateCallback@reportId,c
  7588                           
  7589                           ;app_device_mouse.c: 287: if(reportId == 0)
  7590  001ACE  5004               	movf	APP_DeviceMouseIdleRateCallback@reportId,w,c
  7591  001AD0  A4D8               	btfss	status,2,c
  7592  001AD2  0012               	return	
  7593                           
  7594                           ;app_device_mouse.c: 288: {
  7595                           ;app_device_mouse.c: 289: mouse.inputReport[reportId].idleRate = idleRate;
  7596  001AD4  5004               	movf	APP_DeviceMouseIdleRateCallback@reportId,w,c
  7597  001AD6  0D04               	mullw	4
  7598  001AD8  0E60               	movlw	low _mouse
  7599  001ADA  6E02               	movwf	??_APP_DeviceMouseIdleRateCallback& (0+255),c
  7600  001ADC  0E00               	movlw	high _mouse
  7601  001ADE  6E03               	movwf	(??_APP_DeviceMouseIdleRateCallback+1)& (0+255),c
  7602  001AE0  0E06               	movlw	6
  7603  001AE2  2602               	addwf	??_APP_DeviceMouseIdleRateCallback,f,c
  7604  001AE4  0E00               	movlw	0
  7605  001AE6  2203               	addwfc	??_APP_DeviceMouseIdleRateCallback+1,f,c
  7606  001AE8  50F3               	movf	prodl,w,c
  7607  001AEA  2602               	addwf	??_APP_DeviceMouseIdleRateCallback,f,c
  7608  001AEC  50F4               	movf	prodh,w,c
  7609  001AEE  2203               	addwfc	??_APP_DeviceMouseIdleRateCallback+1,f,c
  7610  001AF0  0E02               	movlw	2
  7611  001AF2  2402               	addwf	??_APP_DeviceMouseIdleRateCallback,w,c
  7612  001AF4  6ED9               	movwf	fsr2l,c
  7613  001AF6  0E00               	movlw	0
  7614  001AF8  2003               	addwfc	??_APP_DeviceMouseIdleRateCallback+1,w,c
  7615  001AFA  6EDA               	movwf	fsr2h,c
  7616  001AFC  C001  FFDF         	movff	APP_DeviceMouseIdleRateCallback@idleRate,indf2
  7617  001B00  0012               	return	
  7618  001B02                     __end_of_APP_DeviceMouseIdleRateCallback:
  7619                           	opt stack 0
  7620                           pclatu	equ	0xFFB
  7621                           pclath	equ	0xFFA
  7622                           tblptru	equ	0xFF8
  7623                           tblptrh	equ	0xFF7
  7624                           tblptrl	equ	0xFF6
  7625                           tablat	equ	0xFF5
  7626                           prodh	equ	0xFF4
  7627                           prodl	equ	0xFF3
  7628                           intcon	equ	0xFF2
  7629                           indf0	equ	0xFEF
  7630                           postinc0	equ	0xFEE
  7631                           fsr0h	equ	0xFEA
  7632                           fsr0l	equ	0xFE9
  7633                           wreg	equ	0xFE8
  7634                           indf1	equ	0xFE7
  7635                           postdec1	equ	0xFE5
  7636                           fsr1h	equ	0xFE2
  7637                           fsr1l	equ	0xFE1
  7638                           indf2	equ	0xFDF
  7639                           postinc2	equ	0xFDE
  7640                           postdec2	equ	0xFDD
  7641                           plusw2	equ	0xFDB
  7642                           fsr2h	equ	0xFDA
  7643                           fsr2l	equ	0xFD9
  7644                           status	equ	0xFD8
  7645                           
  7646 ;; *************** function _APP_LEDUpdateUSBStatus *****************
  7647 ;; Defined at:
  7648 ;;		line 75 in file "../src/app_led_usb_status.c"
  7649 ;; Parameters:    Size  Location     Type
  7650 ;;		None
  7651 ;; Auto vars:     Size  Location     Type
  7652 ;;		None
  7653 ;; Return value:  Size  Location     Type
  7654 ;;		None               void
  7655 ;; Registers used:
  7656 ;;		wreg, status,2, status,0, cstack
  7657 ;; Tracked objects:
  7658 ;;		On entry : 0/0
  7659 ;;		On exit  : 0/0
  7660 ;;		Unchanged: 0/0
  7661 ;; Data sizes:     COMRAM   BANK0   BANK1   BANK2   BANK3   BANK4   BANK5   BANK6   BANK7
  7662 ;;      Params:         0       0       0       0       0       0       0       0       0
  7663 ;;      Locals:         0       0       0       0       0       0       0       0       0
  7664 ;;      Temps:          0       0       0       0       0       0       0       0       0
  7665 ;;      Totals:         0       0       0       0       0       0       0       0       0
  7666 ;;Total ram usage:        0 bytes
  7667 ;; Hardware stack levels used:    1
  7668 ;; Hardware stack levels required when called:    1
  7669 ;; This function calls:
  7670 ;;		_LED_Off
  7671 ;;		_LED_On
  7672 ;; This function is called by:
  7673 ;;		_USER_USB_CALLBACK_EVENT_HANDLER
  7674 ;; This function uses a non-reentrant model
  7675 ;;
  7676                           
  7677                           	psect	text40
  7678  0015AC                     __ptext40:
  7679                           	opt stack 0
  7680  0015AC                     _APP_LEDUpdateUSBStatus:
  7681                           	opt stack 23
  7682                           
  7683                           ;app_led_usb_status.c: 77: static uint16_t ledCount = 0;
  7684                           ;app_led_usb_status.c: 79: if(UCONbits.SUSPND == 1)
  7685                           
  7686                           ;incstack = 0
  7687  0015AC  A26D               	btfss	3949,1,c	;volatile
  7688  0015AE  D036               	goto	i2l3847
  7689                           
  7690                           ;app_led_usb_status.c: 80: {
  7691                           ;app_led_usb_status.c: 81: LED_Off(LED_D1);
  7692  0015B0  0E01               	movlw	1
  7693  0015B2  EC9C  F00D         	call	_LED_Off
  7694                           
  7695                           ;app_led_usb_status.c: 82: return;
  7696  0015B6  0012               	return	
  7697  0015B8                     i2l3821:
  7698                           
  7699                           ;app_led_usb_status.c: 90: if(ledCount == 1)
  7700  0015B8  0437               	decf	APP_LEDUpdateUSBStatus@ledCount,w,c
  7701  0015BA  1038               	iorwf	APP_LEDUpdateUSBStatus@ledCount+1,w,c
  7702  0015BC  A4D8               	btfss	status,2,c
  7703  0015BE  D004               	goto	i2l3825
  7704                           
  7705                           ;app_led_usb_status.c: 91: {
  7706                           ;app_led_usb_status.c: 92: LED_On(LED_D1);
  7707  0015C0  0E01               	movlw	1
  7708  0015C2  EC81  F00D         	call	_LED_On
  7709                           
  7710                           ;app_led_usb_status.c: 93: }
  7711  0015C6  D02F               	goto	i2l3849
  7712  0015C8                     i2l3825:
  7713                           
  7714                           ;app_led_usb_status.c: 94: else if(ledCount == 75)
  7715  0015C8  0E4B               	movlw	75
  7716  0015CA  1837               	xorwf	APP_LEDUpdateUSBStatus@ledCount,w,c
  7717  0015CC  1038               	iorwf	APP_LEDUpdateUSBStatus@ledCount+1,w,c
  7718  0015CE  A4D8               	btfss	status,2,c
  7719  0015D0  D004               	goto	i2l3829
  7720                           
  7721                           ;app_led_usb_status.c: 95: {
  7722                           ;app_led_usb_status.c: 96: LED_Off(LED_D1);
  7723  0015D2  0E01               	movlw	1
  7724  0015D4  EC9C  F00D         	call	_LED_Off
  7725                           
  7726                           ;app_led_usb_status.c: 97: }
  7727  0015D8  D026               	goto	i2l3849
  7728  0015DA                     i2l3829:
  7729                           
  7730                           ;app_led_usb_status.c: 98: else if(ledCount > 150)
  7731  0015DA  5038               	movf	APP_LEDUpdateUSBStatus@ledCount+1,w,c
  7732  0015DC  E104               	bnz	i2u287_40
  7733  0015DE  0E97               	movlw	151
  7734  0015E0  5C37               	subwf	APP_LEDUpdateUSBStatus@ledCount,w,c
  7735  0015E2  A0D8               	btfss	status,0,c
  7736  0015E4  D020               	goto	i2l3849
  7737  0015E6                     i2u287_40:
  7738                           
  7739                           ;app_led_usb_status.c: 99: {
  7740                           ;app_led_usb_status.c: 100: ledCount = 0;
  7741  0015E6  0E00               	movlw	0
  7742  0015E8  6E38               	movwf	APP_LEDUpdateUSBStatus@ledCount+1,c
  7743  0015EA  0E00               	movlw	0
  7744  0015EC  6E37               	movwf	APP_LEDUpdateUSBStatus@ledCount,c
  7745                           
  7746                           ;app_led_usb_status.c: 101: }
  7747                           ;app_led_usb_status.c: 102: break;
  7748  0015EE  D01B               	goto	i2l3849
  7749  0015F0                     i2l3833:
  7750                           
  7751                           ;app_led_usb_status.c: 107: if(ledCount == 1)
  7752  0015F0  0437               	decf	APP_LEDUpdateUSBStatus@ledCount,w,c
  7753  0015F2  1038               	iorwf	APP_LEDUpdateUSBStatus@ledCount+1,w,c
  7754  0015F4  A4D8               	btfss	status,2,c
  7755  0015F6  D004               	goto	i2l3837
  7756                           
  7757                           ;app_led_usb_status.c: 108: {
  7758                           ;app_led_usb_status.c: 109: LED_On(LED_D1);
  7759  0015F8  0E01               	movlw	1
  7760  0015FA  EC81  F00D         	call	_LED_On
  7761                           
  7762                           ;app_led_usb_status.c: 110: }
  7763  0015FE  D013               	goto	i2l3849
  7764  001600                     i2l3837:
  7765                           
  7766                           ;app_led_usb_status.c: 111: else if(ledCount == 50)
  7767  001600  0E32               	movlw	50
  7768  001602  1837               	xorwf	APP_LEDUpdateUSBStatus@ledCount,w,c
  7769  001604  1038               	iorwf	APP_LEDUpdateUSBStatus@ledCount+1,w,c
  7770  001606  A4D8               	btfss	status,2,c
  7771  001608  D004               	goto	i2l3841
  7772                           
  7773                           ;app_led_usb_status.c: 112: {
  7774                           ;app_led_usb_status.c: 113: LED_Off(LED_D1);
  7775  00160A  0E01               	movlw	1
  7776  00160C  EC9C  F00D         	call	_LED_Off
  7777                           
  7778                           ;app_led_usb_status.c: 114: }
  7779  001610  D00A               	goto	i2l3849
  7780  001612                     i2l3841:
  7781                           
  7782                           ;app_led_usb_status.c: 115: else if(ledCount > 950)
  7783  001612  0EB7               	movlw	183
  7784  001614  5C37               	subwf	APP_LEDUpdateUSBStatus@ledCount,w,c
  7785  001616  0E03               	movlw	3
  7786  001618  5838               	subwfb	APP_LEDUpdateUSBStatus@ledCount+1,w,c
  7787  00161A  D7E3               	goto	L9
  7788  00161C                     i2l3847:
  7789  00161C  5051               	movf	_USBDeviceState,w,c	;volatile
  7790                           
  7791                           ; Switch size 1, requested type "space"
  7792                           ; Number of cases is 1, Range of values is 32 to 32
  7793                           ; switch strategies available:
  7794                           ; Name         Instructions Cycles
  7795                           ; simple_byte            4     3 (average)
  7796                           ;	Chosen strategy is simple_byte
  7797  00161E  0A20               	xorlw	32	; case 32
  7798  001620  B4D8               	btfsc	status,2,c
  7799  001622  D7CA               	goto	i2l3821
  7800  001624  D7E5               	goto	i2l3833
  7801  001626                     i2l3849:
  7802                           
  7803                           ;app_led_usb_status.c: 123: ledCount++;
  7804  001626  4A37               	infsnz	APP_LEDUpdateUSBStatus@ledCount,f,c
  7805  001628  2A38               	incf	APP_LEDUpdateUSBStatus@ledCount+1,f,c
  7806  00162A  0012               	return		;funcret
  7807  00162C                     __end_of_APP_LEDUpdateUSBStatus:
  7808                           	opt stack 0
  7809                           pclatu	equ	0xFFB
  7810                           pclath	equ	0xFFA
  7811                           tblptru	equ	0xFF8
  7812                           tblptrh	equ	0xFF7
  7813                           tblptrl	equ	0xFF6
  7814                           tablat	equ	0xFF5
  7815                           prodh	equ	0xFF4
  7816                           prodl	equ	0xFF3
  7817                           intcon	equ	0xFF2
  7818                           indf0	equ	0xFEF
  7819                           postinc0	equ	0xFEE
  7820                           fsr0h	equ	0xFEA
  7821                           fsr0l	equ	0xFE9
  7822                           wreg	equ	0xFE8
  7823                           indf1	equ	0xFE7
  7824                           postdec1	equ	0xFE5
  7825                           fsr1h	equ	0xFE2
  7826                           fsr1l	equ	0xFE1
  7827                           indf2	equ	0xFDF
  7828                           postinc2	equ	0xFDE
  7829                           postdec2	equ	0xFDD
  7830                           plusw2	equ	0xFDB
  7831                           fsr2h	equ	0xFDA
  7832                           fsr2l	equ	0xFD9
  7833                           status	equ	0xFD8
  7834                           
  7835 ;; *************** function _LED_On *****************
  7836 ;; Defined at:
  7837 ;;		line 96 in file "../../../../../../bsp/picdem_fs_usb/leds.c"
  7838 ;; Parameters:    Size  Location     Type
  7839 ;;  led             1    wreg     enum E2
  7840 ;; Auto vars:     Size  Location     Type
  7841 ;;  led             1    0[COMRAM] enum E2
  7842 ;; Return value:  Size  Location     Type
  7843 ;;		None               void
  7844 ;; Registers used:
  7845 ;;		wreg, status,2, status,0
  7846 ;; Tracked objects:
  7847 ;;		On entry : 0/0
  7848 ;;		On exit  : 0/0
  7849 ;;		Unchanged: 0/0
  7850 ;; Data sizes:     COMRAM   BANK0   BANK1   BANK2   BANK3   BANK4   BANK5   BANK6   BANK7
  7851 ;;      Params:         0       0       0       0       0       0       0       0       0
  7852 ;;      Locals:         1       0       0       0       0       0       0       0       0
  7853 ;;      Temps:          0       0       0       0       0       0       0       0       0
  7854 ;;      Totals:         1       0       0       0       0       0       0       0       0
  7855 ;;Total ram usage:        1 bytes
  7856 ;; Hardware stack levels used:    1
  7857 ;; This function calls:
  7858 ;;		Nothing
  7859 ;; This function is called by:
  7860 ;;		_APP_LEDUpdateUSBStatus
  7861 ;; This function uses a non-reentrant model
  7862 ;;
  7863                           
  7864                           	psect	text41
  7865  001B02                     __ptext41:
  7866                           	opt stack 0
  7867  001B02                     _LED_On:
  7868                           	opt stack 23
  7869                           
  7870                           ;incstack = 0
  7871                           ;LED_On@led stored from wreg
  7872  001B02  6E01               	movwf	LED_On@led,c
  7873                           
  7874                           ;leds.c: 98: switch(led)
  7875  001B04  D008               	goto	i2l3725
  7876  001B06                     i2l579:
  7877                           
  7878                           ;leds.c: 101: LATDbits.LATD0 = 1;
  7879  001B06  808C               	bsf	3980,0,c	;volatile
  7880                           
  7881                           ;leds.c: 102: break;
  7882  001B08  0012               	return	
  7883  001B0A                     i2l581:
  7884                           
  7885                           ;leds.c: 105: LATDbits.LATD1 = 1;
  7886  001B0A  828C               	bsf	3980,1,c	;volatile
  7887                           
  7888                           ;leds.c: 106: break;
  7889  001B0C  0012               	return	
  7890  001B0E                     i2l582:
  7891                           
  7892                           ;leds.c: 109: LATDbits.LATD2 = 1;
  7893  001B0E  848C               	bsf	3980,2,c	;volatile
  7894                           
  7895                           ;leds.c: 110: break;
  7896  001B10  0012               	return	
  7897  001B12                     i2l583:
  7898                           
  7899                           ;leds.c: 113: LATDbits.LATD3 = 1;
  7900  001B12  868C               	bsf	3980,3,c	;volatile
  7901                           
  7902                           ;leds.c: 118: }
  7903                           
  7904                           ;leds.c: 117: break;
  7905                           
  7906                           ;leds.c: 116: case LED_NONE:
  7907                           
  7908                           ;leds.c: 114: break;
  7909  001B14  0012               	return	
  7910  001B16                     i2l3725:
  7911  001B16  5001               	movf	LED_On@led,w,c
  7912                           
  7913                           ; Switch size 1, requested type "space"
  7914                           ; Number of cases is 5, Range of values is 0 to 4
  7915                           ; switch strategies available:
  7916                           ; Name         Instructions Cycles
  7917                           ; simple_byte           16     9 (average)
  7918                           ;	Chosen strategy is simple_byte
  7919  001B18  0A00               	xorlw	0	; case 0
  7920  001B1A  B4D8               	btfsc	status,2,c
  7921  001B1C  0012               	return	
  7922  001B1E  0A01               	xorlw	1	; case 1
  7923  001B20  B4D8               	btfsc	status,2,c
  7924  001B22  D7F1               	goto	i2l579
  7925  001B24  0A03               	xorlw	3	; case 2
  7926  001B26  B4D8               	btfsc	status,2,c
  7927  001B28  D7F0               	goto	i2l581
  7928  001B2A  0A01               	xorlw	1	; case 3
  7929  001B2C  B4D8               	btfsc	status,2,c
  7930  001B2E  D7EF               	goto	i2l582
  7931  001B30  0A07               	xorlw	7	; case 4
  7932  001B32  A4D8               	btfss	status,2,c
  7933  001B34  0012               	return	
  7934  001B36  D7ED               	goto	i2l583
  7935  001B38                     __end_of_LED_On:
  7936                           	opt stack 0
  7937                           pclatu	equ	0xFFB
  7938                           pclath	equ	0xFFA
  7939                           tblptru	equ	0xFF8
  7940                           tblptrh	equ	0xFF7
  7941                           tblptrl	equ	0xFF6
  7942                           tablat	equ	0xFF5
  7943                           prodh	equ	0xFF4
  7944                           prodl	equ	0xFF3
  7945                           intcon	equ	0xFF2
  7946                           indf0	equ	0xFEF
  7947                           postinc0	equ	0xFEE
  7948                           fsr0h	equ	0xFEA
  7949                           fsr0l	equ	0xFE9
  7950                           wreg	equ	0xFE8
  7951                           indf1	equ	0xFE7
  7952                           postdec1	equ	0xFE5
  7953                           fsr1h	equ	0xFE2
  7954                           fsr1l	equ	0xFE1
  7955                           indf2	equ	0xFDF
  7956                           postinc2	equ	0xFDE
  7957                           postdec2	equ	0xFDD
  7958                           plusw2	equ	0xFDB
  7959                           fsr2h	equ	0xFDA
  7960                           fsr2l	equ	0xFD9
  7961                           status	equ	0xFD8
  7962                           
  7963 ;; *************** function _LED_Off *****************
  7964 ;; Defined at:
  7965 ;;		line 137 in file "../../../../../../bsp/picdem_fs_usb/leds.c"
  7966 ;; Parameters:    Size  Location     Type
  7967 ;;  led             1    wreg     enum E2
  7968 ;; Auto vars:     Size  Location     Type
  7969 ;;  led             1    0[COMRAM] enum E2
  7970 ;; Return value:  Size  Location     Type
  7971 ;;		None               void
  7972 ;; Registers used:
  7973 ;;		wreg, status,2, status,0
  7974 ;; Tracked objects:
  7975 ;;		On entry : 0/0
  7976 ;;		On exit  : 0/0
  7977 ;;		Unchanged: 0/0
  7978 ;; Data sizes:     COMRAM   BANK0   BANK1   BANK2   BANK3   BANK4   BANK5   BANK6   BANK7
  7979 ;;      Params:         0       0       0       0       0       0       0       0       0
  7980 ;;      Locals:         1       0       0       0       0       0       0       0       0
  7981 ;;      Temps:          0       0       0       0       0       0       0       0       0
  7982 ;;      Totals:         1       0       0       0       0       0       0       0       0
  7983 ;;Total ram usage:        1 bytes
  7984 ;; Hardware stack levels used:    1
  7985 ;; This function calls:
  7986 ;;		Nothing
  7987 ;; This function is called by:
  7988 ;;		_APP_LEDUpdateUSBStatus
  7989 ;; This function uses a non-reentrant model
  7990 ;;
  7991                           
  7992                           	psect	text42
  7993  001B38                     __ptext42:
  7994                           	opt stack 0
  7995  001B38                     _LED_Off:
  7996                           	opt stack 23
  7997                           
  7998                           ;incstack = 0
  7999                           ;LED_Off@led stored from wreg
  8000  001B38  6E01               	movwf	LED_Off@led,c
  8001                           
  8002                           ;leds.c: 139: switch(led)
  8003  001B3A  D008               	goto	i2l3719
  8004  001B3C                     i2l589:
  8005                           
  8006                           ;leds.c: 142: LATDbits.LATD0 = 0;
  8007  001B3C  908C               	bcf	3980,0,c	;volatile
  8008                           
  8009                           ;leds.c: 143: break;
  8010  001B3E  0012               	return	
  8011  001B40                     i2l591:
  8012                           
  8013                           ;leds.c: 146: LATDbits.LATD1 = 0;
  8014  001B40  928C               	bcf	3980,1,c	;volatile
  8015                           
  8016                           ;leds.c: 147: break;
  8017  001B42  0012               	return	
  8018  001B44                     i2l592:
  8019                           
  8020                           ;leds.c: 150: LATDbits.LATD2 = 0;
  8021  001B44  948C               	bcf	3980,2,c	;volatile
  8022                           
  8023                           ;leds.c: 151: break;
  8024  001B46  0012               	return	
  8025  001B48                     i2l593:
  8026                           
  8027                           ;leds.c: 154: LATDbits.LATD3 = 0;
  8028  001B48  968C               	bcf	3980,3,c	;volatile
  8029                           
  8030                           ;leds.c: 159: }
  8031                           
  8032                           ;leds.c: 158: break;
  8033                           
  8034                           ;leds.c: 157: case LED_NONE:
  8035                           
  8036                           ;leds.c: 155: break;
  8037  001B4A  0012               	return	
  8038  001B4C                     i2l3719:
  8039  001B4C  5001               	movf	LED_Off@led,w,c
  8040                           
  8041                           ; Switch size 1, requested type "space"
  8042                           ; Number of cases is 5, Range of values is 0 to 4
  8043                           ; switch strategies available:
  8044                           ; Name         Instructions Cycles
  8045                           ; simple_byte           16     9 (average)
  8046                           ;	Chosen strategy is simple_byte
  8047  001B4E  0A00               	xorlw	0	; case 0
  8048  001B50  B4D8               	btfsc	status,2,c
  8049  001B52  0012               	return	
  8050  001B54  0A01               	xorlw	1	; case 1
  8051  001B56  B4D8               	btfsc	status,2,c
  8052  001B58  D7F1               	goto	i2l589
  8053  001B5A  0A03               	xorlw	3	; case 2
  8054  001B5C  B4D8               	btfsc	status,2,c
  8055  001B5E  D7F0               	goto	i2l591
  8056  001B60  0A01               	xorlw	1	; case 3
  8057  001B62  B4D8               	btfsc	status,2,c
  8058  001B64  D7EF               	goto	i2l592
  8059  001B66  0A07               	xorlw	7	; case 4
  8060  001B68  A4D8               	btfss	status,2,c
  8061  001B6A  0012               	return	
  8062  001B6C  D7ED               	goto	i2l593
  8063  001B6E                     __end_of_LED_Off:
  8064                           	opt stack 0
  8065                           pclatu	equ	0xFFB
  8066                           pclath	equ	0xFFA
  8067                           tblptru	equ	0xFF8
  8068                           tblptrh	equ	0xFF7
  8069                           tblptrl	equ	0xFF6
  8070                           tablat	equ	0xFF5
  8071                           prodh	equ	0xFF4
  8072                           prodl	equ	0xFF3
  8073                           intcon	equ	0xFF2
  8074                           indf0	equ	0xFEF
  8075                           postinc0	equ	0xFEE
  8076                           fsr0h	equ	0xFEA
  8077                           fsr0l	equ	0xFE9
  8078                           wreg	equ	0xFE8
  8079                           indf1	equ	0xFE7
  8080                           postdec1	equ	0xFE5
  8081                           fsr1h	equ	0xFE2
  8082                           fsr1l	equ	0xFE1
  8083                           indf2	equ	0xFDF
  8084                           postinc2	equ	0xFDE
  8085                           postdec2	equ	0xFDD
  8086                           plusw2	equ	0xFDB
  8087                           fsr2h	equ	0xFDA
  8088                           fsr2l	equ	0xFD9
  8089                           status	equ	0xFD8
  8090                           
  8091 ;; *************** function _APP_DeviceMouseSOFHandler *****************
  8092 ;; Defined at:
  8093 ;;		line 305 in file "../src/app_device_mouse.c"
  8094 ;; Parameters:    Size  Location     Type
  8095 ;;		None
  8096 ;; Auto vars:     Size  Location     Type
  8097 ;;		None
  8098 ;; Return value:  Size  Location     Type
  8099 ;;		None               void
  8100 ;; Registers used:
  8101 ;;		wreg, fsr2l, fsr2h, status,2, status,0, prodl, prodh, cstack
  8102 ;; Tracked objects:
  8103 ;;		On entry : 0/0
  8104 ;;		On exit  : 0/0
  8105 ;;		Unchanged: 0/0
  8106 ;; Data sizes:     COMRAM   BANK0   BANK1   BANK2   BANK3   BANK4   BANK5   BANK6   BANK7
  8107 ;;      Params:         0       0       0       0       0       0       0       0       0
  8108 ;;      Locals:         0       0       0       0       0       0       0       0       0
  8109 ;;      Temps:          0       0       0       0       0       0       0       0       0
  8110 ;;      Totals:         0       0       0       0       0       0       0       0       0
  8111 ;;Total ram usage:        0 bytes
  8112 ;; Hardware stack levels used:    1
  8113 ;; Hardware stack levels required when called:    3
  8114 ;; This function calls:
  8115 ;;		_MPU6050_ReadAccX
  8116 ;;		_MPU6050_ReadAccY
  8117 ;;		_USBTransferOnePacket
  8118 ;; This function is called by:
  8119 ;;		_USER_USB_CALLBACK_EVENT_HANDLER
  8120 ;; This function uses a non-reentrant model
  8121 ;;
  8122                           
  8123                           	psect	text43
  8124  000680                     __ptext43:
  8125                           	opt stack 0
  8126  000680                     _APP_DeviceMouseSOFHandler:
  8127                           	opt stack 21
  8128                           
  8129                           ;app_device_mouse.c: 312: if(USBDeviceState != CONFIGURED_STATE)
  8130                           
  8131                           ;incstack = 0
  8132  000680  0E20               	movlw	32
  8133  000682  1851               	xorwf	_USBDeviceState,w,c	;volatile
  8134  000684  A4D8               	btfss	status,2,c
  8135  000686  0012               	return	
  8136                           
  8137                           ;app_device_mouse.c: 315: }
  8138                           ;app_device_mouse.c: 340: if(((mouse.inputReport[0].handle != 0x0000) && ((*(volatile ui
      +                          nt8_t*)mouse.inputReport[0].handle & 0x80) != 0x00)) == 0)
  8139                           
  8140                           ;app_device_mouse.c: 313: {
  8141                           ;app_device_mouse.c: 314: return;
  8142  000688  0100               	movlb	0	; () banked
  8143  00068A  5166               	movf	(_mouse+6)& (0+255),w,b
  8144  00068C  0100               	movlb	0	; () banked
  8145  00068E  1167               	iorwf	(_mouse+7)& (0+255),w,b
  8146  000690  B4D8               	btfsc	status,2,c
  8147  000692  D007               	goto	i2l3757
  8148                           
  8149                           ; BSR set to: 0
  8150  000694  C066  FFD9         	movff	_mouse+6,fsr2l
  8151  000698  C067  FFDA         	movff	_mouse+7,fsr2h
  8152  00069C  0100               	movlb	0	; () banked
  8153  00069E  BEDF               	btfsc	indf2,7,c
  8154  0006A0  0012               	return	
  8155  0006A2                     i2l3757:
  8156                           
  8157                           ; BSR set to: 0
  8158                           ;app_device_mouse.c: 341: {
  8159                           ;app_device_mouse.c: 347: mouse.movementCount++;
  8160  0006A2  0100               	movlb	0	; () banked
  8161  0006A4  4B63               	infsnz	(_mouse+3)& (0+255),f,b
  8162  0006A6  2B64               	incf	(_mouse+4)& (0+255),f,b
  8163                           
  8164                           ; BSR set to: 0
  8165                           ;app_device_mouse.c: 352: if(mouse.movementCount == 1)
  8166  0006A8  0100               	movlb	0	; () banked
  8167  0006AA  0563               	decf	(_mouse+3)& (0+255),w,b
  8168  0006AC  0100               	movlb	0	; () banked
  8169  0006AE  1164               	iorwf	(_mouse+4)& (0+255),w,b
  8170  0006B0  A4D8               	btfss	status,2,c
  8171  0006B2  D00E               	goto	i2l3769
  8172                           
  8173                           ; BSR set to: 0
  8174                           ;app_device_mouse.c: 353: {
  8175                           ;app_device_mouse.c: 354: mouse.movementCount = 0;
  8176  0006B4  0E00               	movlw	0
  8177  0006B6  0100               	movlb	0	; () banked
  8178  0006B8  6F64               	movwf	(_mouse+4)& (0+255),b
  8179  0006BA  0E00               	movlw	0
  8180  0006BC  6F63               	movwf	(_mouse+3)& (0+255),b
  8181                           
  8182                           ; BSR set to: 0
  8183                           ;app_device_mouse.c: 356: mouse.vectorPosition++;
  8184  0006BE  0100               	movlb	0	; () banked
  8185  0006C0  2B62               	incf	(_mouse+2)& (0+255),f,b
  8186                           
  8187                           ; BSR set to: 0
  8188                           ;app_device_mouse.c: 357: if(mouse.vectorPosition >= 1)
  8189  0006C2  0100               	movlb	0	; () banked
  8190  0006C4  5162               	movf	(_mouse+2)& (0+255),w,b
  8191  0006C6  B4D8               	btfsc	status,2,c
  8192  0006C8  D003               	goto	i2l3769
  8193                           
  8194                           ; BSR set to: 0
  8195                           ;app_device_mouse.c: 358: {
  8196                           ;app_device_mouse.c: 359: mouse.vectorPosition = 0;
  8197  0006CA  0E00               	movlw	0
  8198  0006CC  0100               	movlb	0	; () banked
  8199  0006CE  6F62               	movwf	(_mouse+2)& (0+255),b
  8200  0006D0                     i2l3769:
  8201                           
  8202                           ; BSR set to: 0
  8203                           ;app_device_mouse.c: 360: }
  8204                           ;app_device_mouse.c: 361: }
  8205                           ;app_device_mouse.c: 368: if(mouse.movementMode == 1)
  8206  0006D0  0100               	movlb	0	; () banked
  8207  0006D2  0565               	decf	(_mouse+5)& (0+255),w,b
  8208  0006D4  A4D8               	btfss	status,2,c
  8209  0006D6  D05E               	goto	i2l3813
  8210                           
  8211                           ; BSR set to: 0
  8212                           ;app_device_mouse.c: 369: {
  8213                           ;app_device_mouse.c: 370: mouseReport.buttons.button1 = 0;
  8214  0006D8  0105               	movlb	5	; () banked
  8215  0006DA  9100               	bcf	0,0,b
  8216                           
  8217                           ;app_device_mouse.c: 371: mouseReport.buttons.button2 = 0;
  8218  0006DC  0105               	movlb	5	; () banked
  8219  0006DE  9300               	bcf	0,1,b
  8220                           
  8221                           ;app_device_mouse.c: 372: mouseReport.buttons.button3 = 0;
  8222  0006E0  0105               	movlb	5	; () banked
  8223  0006E2  9500               	bcf	0,2,b
  8224                           
  8225                           ; BSR set to: 5
  8226                           ;app_device_mouse.c: 373: mouseReport.x = 0;
  8227  0006E4  0E00               	movlw	0
  8228  0006E6  0105               	movlb	5	; () banked
  8229  0006E8  6F01               	movwf	1,b
  8230                           
  8231                           ;app_device_mouse.c: 374: mouseReport.y = 0;
  8232  0006EA  0E00               	movlw	0
  8233  0006EC  0105               	movlb	5	; () banked
  8234  0006EE  6F02               	movwf	2,b
  8235                           
  8236                           ; BSR set to: 5
  8237                           ;app_device_mouse.c: 376: oldacx = acx;
  8238  0006F0  C039  F03F         	movff	_acx,_oldacx
  8239  0006F4  C03A  F040         	movff	_acx+1,_oldacx+1
  8240                           
  8241                           ; BSR set to: 5
  8242                           ;app_device_mouse.c: 378: acx = MPU6050_ReadAccX();
  8243  0006F8  EC1D  F009         	call	_MPU6050_ReadAccX	;wreg free
  8244  0006FC  C003  F039         	movff	?_MPU6050_ReadAccX,_acx
  8245  000700  C004  F03A         	movff	?_MPU6050_ReadAccX+1,_acx+1
  8246                           
  8247                           ;app_device_mouse.c: 380: if(acx >= 6000)
  8248  000704  BE3A               	btfsc	_acx+1,7,c
  8249  000706  D008               	goto	i2l3783
  8250  000708  0E70               	movlw	112
  8251  00070A  5C39               	subwf	_acx,w,c
  8252  00070C  0E17               	movlw	23
  8253  00070E  583A               	subwfb	_acx+1,w,c
  8254  000710  A0D8               	btfss	status,0,c
  8255  000712  D002               	goto	i2l3783
  8256                           
  8257                           ;app_device_mouse.c: 381: {
  8258                           ;app_device_mouse.c: 384: mouseReport.y = -1;
  8259  000714  0105               	movlb	5	; () banked
  8260  000716  6902               	setf	2,b
  8261  000718                     i2l3783:
  8262                           
  8263                           ;app_device_mouse.c: 385: }
  8264                           ;app_device_mouse.c: 387: if(acx <=-6000){
  8265  000718  AE3A               	btfss	_acx+1,7,c
  8266  00071A  D009               	goto	i2l3787
  8267  00071C  0E91               	movlw	145
  8268  00071E  5C39               	subwf	_acx,w,c
  8269  000720  0EE8               	movlw	232
  8270  000722  583A               	subwfb	_acx+1,w,c
  8271  000724  B0D8               	btfsc	status,0,c
  8272  000726  D003               	goto	i2l3787
  8273                           
  8274                           ;app_device_mouse.c: 388: mouseReport.y = 1;
  8275  000728  0E01               	movlw	1
  8276  00072A  0105               	movlb	5	; () banked
  8277  00072C  6F02               	movwf	2,b
  8278  00072E                     i2l3787:
  8279                           
  8280                           ;app_device_mouse.c: 389: }
  8281                           ;app_device_mouse.c: 391: oldacy = acy;
  8282  00072E  C03B  F041         	movff	_acy,_oldacy
  8283  000732  C03C  F042         	movff	_acy+1,_oldacy+1
  8284                           
  8285                           ;app_device_mouse.c: 392: acy = MPU6050_ReadAccY();
  8286  000736  ECCD  F008         	call	_MPU6050_ReadAccY	;wreg free
  8287  00073A  C003  F03B         	movff	?_MPU6050_ReadAccY,_acy
  8288  00073E  C004  F03C         	movff	?_MPU6050_ReadAccY+1,_acy+1
  8289                           
  8290                           ;app_device_mouse.c: 393: if(acy <=-6000){
  8291  000742  AE3C               	btfss	_acy+1,7,c
  8292  000744  D008               	goto	i2l3795
  8293  000746  0E91               	movlw	145
  8294  000748  5C3B               	subwf	_acy,w,c
  8295  00074A  0EE8               	movlw	232
  8296  00074C  583C               	subwfb	_acy+1,w,c
  8297  00074E  B0D8               	btfsc	status,0,c
  8298  000750  D002               	goto	i2l3795
  8299                           
  8300                           ;app_device_mouse.c: 394: mouseReport.x = -1;
  8301  000752  0105               	movlb	5	; () banked
  8302  000754  6901               	setf	1,b
  8303  000756                     i2l3795:
  8304                           
  8305                           ;app_device_mouse.c: 395: }
  8306                           ;app_device_mouse.c: 397: if(acy >=6000){
  8307  000756  BE3C               	btfsc	_acy+1,7,c
  8308  000758  D009               	goto	i2l3799
  8309  00075A  0E70               	movlw	112
  8310  00075C  5C3B               	subwf	_acy,w,c
  8311  00075E  0E17               	movlw	23
  8312  000760  583C               	subwfb	_acy+1,w,c
  8313  000762  A0D8               	btfss	status,0,c
  8314  000764  D003               	goto	i2l3799
  8315                           
  8316                           ;app_device_mouse.c: 398: mouseReport.x = 1;
  8317  000766  0E01               	movlw	1
  8318  000768  0105               	movlb	5	; () banked
  8319  00076A  6F01               	movwf	1,b
  8320  00076C                     i2l3799:
  8321                           
  8322                           ;app_device_mouse.c: 399: }
  8323                           ;app_device_mouse.c: 401: if(PORTBbits.RB2 == 1){
  8324  00076C  A481               	btfss	3969,2,c	;volatile
  8325  00076E  D002               	goto	i2l3803
  8326                           
  8327                           ;app_device_mouse.c: 402: mouseReport.buttons.button1 = 1;
  8328  000770  0105               	movlb	5	; () banked
  8329  000772  8100               	bsf	0,0,b
  8330  000774                     i2l3803:
  8331                           
  8332                           ;app_device_mouse.c: 403: }
  8333                           ;app_device_mouse.c: 413: if(mouse.inputReport[0].idleRate != 0)
  8334  000774  0100               	movlb	0	; () banked
  8335  000776  5168               	movf	(_mouse+8)& (0+255),w,b
  8336  000778  B4D8               	btfsc	status,2,c
  8337  00077A  D002               	goto	i2l3807
  8338                           
  8339                           ; BSR set to: 0
  8340                           ;app_device_mouse.c: 414: {
  8341                           ;app_device_mouse.c: 415: mouse.inputReport[0].idleRateSofCount++;
  8342  00077C  0100               	movlb	0	; () banked
  8343  00077E  2B69               	incf	(_mouse+9)& (0+255),f,b
  8344  000780                     i2l3807:
  8345                           
  8346                           ; BSR set to: 0
  8347                           ;app_device_mouse.c: 416: }
  8348                           ;app_device_mouse.c: 423: if(mouse.sentStop == 1)
  8349  000780  0100               	movlb	0	; () banked
  8350  000782  0560               	decf	_mouse& (0+255),w,b
  8351  000784  A4D8               	btfss	status,2,c
  8352  000786  D006               	goto	i2l3813
  8353                           
  8354                           ; BSR set to: 0
  8355                           ;app_device_mouse.c: 424: {
  8356                           ;app_device_mouse.c: 430: if(mouse.inputReport[0].idleRateSofCount <= mouse.inputReport[
      +                          0].idleRate)
  8357  000788  0100               	movlb	0	; () banked
  8358  00078A  5169               	movf	(_mouse+9)& (0+255),w,b
  8359  00078C  0100               	movlb	0	; () banked
  8360  00078E  5D68               	subwf	(_mouse+8)& (0+255),w,b
  8361  000790  B0D8               	btfsc	status,0,c
  8362  000792  0012               	return	
  8363  000794                     i2l3813:
  8364                           
  8365                           ; BSR set to: 0
  8366                           ;app_device_mouse.c: 433: }
  8367                           ;app_device_mouse.c: 434: }
  8368                           ;app_device_mouse.c: 435: }
  8369                           ;app_device_mouse.c: 437: mouse.inputReport[0].handle = USBTransferOnePacket(1,1,(uint8_
      +                          t*)&mouseReport,sizeof(mouseReport));
  8370  000794  0E01               	movlw	1
  8371  000796  6E01               	movwf	USBTransferOnePacket@dir,c
  8372  000798  0E00               	movlw	0
  8373  00079A  6E02               	movwf	USBTransferOnePacket@data,c
  8374  00079C  0E05               	movlw	5
  8375  00079E  6E03               	movwf	USBTransferOnePacket@data+1,c
  8376  0007A0  0E03               	movlw	3
  8377  0007A2  6E04               	movwf	USBTransferOnePacket@len,c
  8378  0007A4  0E01               	movlw	1
  8379  0007A6  EC70  F008         	call	_USBTransferOnePacket
  8380  0007AA  C001  F066         	movff	?_USBTransferOnePacket,_mouse+6
  8381  0007AE  C002  F067         	movff	?_USBTransferOnePacket+1,_mouse+7
  8382  0007B2  0012               	return	
  8383  0007B4                     __end_of_APP_DeviceMouseSOFHandler:
  8384                           	opt stack 0
  8385                           pclatu	equ	0xFFB
  8386                           pclath	equ	0xFFA
  8387                           tblptru	equ	0xFF8
  8388                           tblptrh	equ	0xFF7
  8389                           tblptrl	equ	0xFF6
  8390                           tablat	equ	0xFF5
  8391                           prodh	equ	0xFF4
  8392                           prodl	equ	0xFF3
  8393                           intcon	equ	0xFF2
  8394                           indf0	equ	0xFEF
  8395                           postinc0	equ	0xFEE
  8396                           fsr0h	equ	0xFEA
  8397                           fsr0l	equ	0xFE9
  8398                           wreg	equ	0xFE8
  8399                           indf1	equ	0xFE7
  8400                           postdec1	equ	0xFE5
  8401                           fsr1h	equ	0xFE2
  8402                           fsr1l	equ	0xFE1
  8403                           indf2	equ	0xFDF
  8404                           postinc2	equ	0xFDE
  8405                           postdec2	equ	0xFDD
  8406                           plusw2	equ	0xFDB
  8407                           fsr2h	equ	0xFDA
  8408                           fsr2l	equ	0xFD9
  8409                           status	equ	0xFD8
  8410                           
  8411 ;; *************** function _USBTransferOnePacket *****************
  8412 ;; Defined at:
  8413 ;;		line 1013 in file "../../../../../../framework/usb/src/usb_device.c"
  8414 ;; Parameters:    Size  Location     Type
  8415 ;;  ep              1    wreg     unsigned char 
  8416 ;;  dir             1    0[COMRAM] unsigned char 
  8417 ;;  data            2    1[COMRAM] PTR unsigned char 
  8418 ;;		 -> mouseReport(3), 
  8419 ;;  len             1    3[COMRAM] unsigned char 
  8420 ;; Auto vars:     Size  Location     Type
  8421 ;;  ep              1    4[COMRAM] unsigned char 
  8422 ;;  handle          2    5[COMRAM] PTR volatile struct __BD
  8423 ;;		 -> BDT(32), NULL(0), 
  8424 ;; Return value:  Size  Location     Type
  8425 ;;                  2    0[COMRAM] PTR void 
  8426 ;; Registers used:
  8427 ;;		wreg, fsr2l, fsr2h, status,2, status,0, prodl, prodh
  8428 ;; Tracked objects:
  8429 ;;		On entry : 0/0
  8430 ;;		On exit  : 0/0
  8431 ;;		Unchanged: 0/0
  8432 ;; Data sizes:     COMRAM   BANK0   BANK1   BANK2   BANK3   BANK4   BANK5   BANK6   BANK7
  8433 ;;      Params:         4       0       0       0       0       0       0       0       0
  8434 ;;      Locals:         3       0       0       0       0       0       0       0       0
  8435 ;;      Temps:          0       0       0       0       0       0       0       0       0
  8436 ;;      Totals:         7       0       0       0       0       0       0       0       0
  8437 ;;Total ram usage:        7 bytes
  8438 ;; Hardware stack levels used:    1
  8439 ;; This function calls:
  8440 ;;		Nothing
  8441 ;; This function is called by:
  8442 ;;		_APP_DeviceMouseSOFHandler
  8443 ;; This function uses a non-reentrant model
  8444 ;;
  8445                           
  8446                           	psect	text44
  8447  0010E0                     __ptext44:
  8448                           	opt stack 0
  8449  0010E0                     _USBTransferOnePacket:
  8450                           	opt stack 23
  8451                           
  8452                           ;incstack = 0
  8453                           ;USBTransferOnePacket@ep stored from wreg
  8454  0010E0  6E05               	movwf	USBTransferOnePacket@ep,c
  8455                           
  8456                           ;usb_device.c: 1015: volatile BDT_ENTRY* handle;
  8457                           ;usb_device.c: 1018: if(dir != 0)
  8458  0010E2  5001               	movf	USBTransferOnePacket@dir,w,c
  8459  0010E4  B4D8               	btfsc	status,2,c
  8460  0010E6  D007               	goto	i2l3689
  8461                           
  8462                           ;usb_device.c: 1019: {
  8463                           ;usb_device.c: 1021: handle = pBDTEntryIn[ep];
  8464  0010E8  5005               	movf	USBTransferOnePacket@ep,w,c
  8465  0010EA  0D02               	mullw	2
  8466  0010EC  0E78               	movlw	low _pBDTEntryIn
  8467  0010EE  24F3               	addwf	prodl,w,c
  8468  0010F0  6ED9               	movwf	fsr2l,c
  8469  0010F2  0E00               	movlw	high _pBDTEntryIn
  8470  0010F4  D006               	goto	L10
  8471  0010F6                     i2l3689:
  8472                           
  8473                           ;usb_device.c: 1023: else
  8474                           ;usb_device.c: 1024: {
  8475                           ;usb_device.c: 1026: handle = pBDTEntryOut[ep];
  8476  0010F6  5005               	movf	USBTransferOnePacket@ep,w,c
  8477  0010F8  0D02               	mullw	2
  8478  0010FA  0E7C               	movlw	low _pBDTEntryOut
  8479  0010FC  24F3               	addwf	prodl,w,c
  8480  0010FE  6ED9               	movwf	fsr2l,c
  8481  001100  0E00               	movlw	high _pBDTEntryOut
  8482  001102                     L10:
  8483  001102  20F4               	addwfc	prodh,w,c
  8484  001104  6EDA               	movwf	fsr2h,c
  8485  001106  CFDE F006          	movff	postinc2,USBTransferOnePacket@handle
  8486  00110A  CFDD F007          	movff	postdec2,USBTransferOnePacket@handle+1
  8487                           
  8488                           ;usb_device.c: 1027: }
  8489                           ;usb_device.c: 1031: if(handle == 0)
  8490  00110E  5006               	movf	USBTransferOnePacket@handle,w,c
  8491  001110  1007               	iorwf	USBTransferOnePacket@handle+1,w,c
  8492  001112  A4D8               	btfss	status,2,c
  8493  001114  D005               	goto	i2l3697
  8494                           
  8495                           ;usb_device.c: 1032: {
  8496                           ;usb_device.c: 1033: return 0;
  8497  001116  0E00               	movlw	0
  8498  001118  6E01               	movwf	?_USBTransferOnePacket,c
  8499  00111A  0E00               	movlw	0
  8500  00111C  6E02               	movwf	?_USBTransferOnePacket+1,c
  8501  00111E  0012               	return	
  8502  001120                     i2l3697:
  8503                           
  8504                           ;usb_device.c: 1034: }
  8505                           ;usb_device.c: 1047: handle->ADR = ((uint16_t)(data));
  8506  001120  EE20 F002          	lfsr	2,2
  8507  001124  5006               	movf	USBTransferOnePacket@handle,w,c
  8508  001126  26D9               	addwf	fsr2l,f,c
  8509  001128  5007               	movf	USBTransferOnePacket@handle+1,w,c
  8510  00112A  22DA               	addwfc	fsr2h,f,c
  8511  00112C  C002  FFDE         	movff	USBTransferOnePacket@data,postinc2
  8512  001130  C003  FFDD         	movff	USBTransferOnePacket@data+1,postdec2
  8513                           
  8514                           ;usb_device.c: 1048: handle->CNT = len;
  8515  001134  EE20 F001          	lfsr	2,1
  8516  001138  5006               	movf	USBTransferOnePacket@handle,w,c
  8517  00113A  26D9               	addwf	fsr2l,f,c
  8518  00113C  5007               	movf	USBTransferOnePacket@handle+1,w,c
  8519  00113E  22DA               	addwfc	fsr2h,f,c
  8520  001140  C004  FFDF         	movff	USBTransferOnePacket@len,indf2
  8521                           
  8522                           ;usb_device.c: 1049: handle->STAT.Val &= 0x40;
  8523  001144  C006  FFD9         	movff	USBTransferOnePacket@handle,fsr2l
  8524  001148  C007  FFDA         	movff	USBTransferOnePacket@handle+1,fsr2h
  8525  00114C  0E40               	movlw	64
  8526  00114E  16DF               	andwf	indf2,f,c
  8527                           
  8528                           ;usb_device.c: 1050: handle->STAT.Val |= (0x08 & 0x08);
  8529  001150  C006  FFD9         	movff	USBTransferOnePacket@handle,fsr2l
  8530  001154  C007  FFDA         	movff	USBTransferOnePacket@handle+1,fsr2h
  8531  001158  0E00               	movlw	0
  8532  00115A  86DB               	bsf	plusw2,3,c
  8533                           
  8534                           ;usb_device.c: 1051: handle->STAT.Val |= 0x80;
  8535  00115C  C006  FFD9         	movff	USBTransferOnePacket@handle,fsr2l
  8536  001160  C007  FFDA         	movff	USBTransferOnePacket@handle+1,fsr2h
  8537  001164  0E00               	movlw	0
  8538  001166  8EDB               	bsf	plusw2,7,c
  8539                           
  8540                           ;usb_device.c: 1054: if(dir != 0)
  8541  001168  5001               	movf	USBTransferOnePacket@dir,w,c
  8542  00116A  B4D8               	btfsc	status,2,c
  8543  00116C  D007               	goto	i2l3709
  8544                           
  8545                           ;usb_device.c: 1055: {
  8546                           ;usb_device.c: 1057: {((uint8_t_VAL*)&pBDTEntryIn[ep])->Val ^= 0x0004;};
  8547  00116E  5005               	movf	USBTransferOnePacket@ep,w,c
  8548  001170  0D02               	mullw	2
  8549  001172  0E78               	movlw	low _pBDTEntryIn
  8550  001174  24F3               	addwf	prodl,w,c
  8551  001176  6ED9               	movwf	fsr2l,c
  8552  001178  0E00               	movlw	high _pBDTEntryIn
  8553  00117A  D006               	goto	L11
  8554  00117C                     i2l3709:
  8555                           
  8556                           ;usb_device.c: 1059: else
  8557                           ;usb_device.c: 1060: {
  8558                           ;usb_device.c: 1062: {((uint8_t_VAL*)&pBDTEntryOut[ep])->Val ^= 0x0004;};
  8559  00117C  5005               	movf	USBTransferOnePacket@ep,w,c
  8560  00117E  0D02               	mullw	2
  8561  001180  0E7C               	movlw	low _pBDTEntryOut
  8562  001182  24F3               	addwf	prodl,w,c
  8563  001184  6ED9               	movwf	fsr2l,c
  8564  001186  0E00               	movlw	high _pBDTEntryOut
  8565  001188                     L11:
  8566  001188  20F4               	addwfc	prodh,w,c
  8567  00118A  6EDA               	movwf	fsr2h,c
  8568  00118C  0E04               	movlw	4
  8569  00118E  1ADF               	xorwf	indf2,f,c
  8570                           
  8571                           ;usb_device.c: 1063: }
  8572                           ;usb_device.c: 1064: return (void*)handle;
  8573  001190  C006  F001         	movff	USBTransferOnePacket@handle,?_USBTransferOnePacket
  8574  001194  C007  F002         	movff	USBTransferOnePacket@handle+1,?_USBTransferOnePacket+1
  8575  001198  0012               	return	
  8576  00119A                     __end_of_USBTransferOnePacket:
  8577                           	opt stack 0
  8578                           pclatu	equ	0xFFB
  8579                           pclath	equ	0xFFA
  8580                           tblptru	equ	0xFF8
  8581                           tblptrh	equ	0xFF7
  8582                           tblptrl	equ	0xFF6
  8583                           tablat	equ	0xFF5
  8584                           prodh	equ	0xFF4
  8585                           prodl	equ	0xFF3
  8586                           intcon	equ	0xFF2
  8587                           indf0	equ	0xFEF
  8588                           postinc0	equ	0xFEE
  8589                           fsr0h	equ	0xFEA
  8590                           fsr0l	equ	0xFE9
  8591                           wreg	equ	0xFE8
  8592                           indf1	equ	0xFE7
  8593                           postdec1	equ	0xFE5
  8594                           fsr1h	equ	0xFE2
  8595                           fsr1l	equ	0xFE1
  8596                           indf2	equ	0xFDF
  8597                           postinc2	equ	0xFDE
  8598                           postdec2	equ	0xFDD
  8599                           plusw2	equ	0xFDB
  8600                           fsr2h	equ	0xFDA
  8601                           fsr2l	equ	0xFD9
  8602                           status	equ	0xFD8
  8603                           
  8604 ;; *************** function _MPU6050_ReadAccY *****************
  8605 ;; Defined at:
  8606 ;;		line 298 in file "../../../../../../../../../Desktop/IMU/MPU6050.h"
  8607 ;; Parameters:    Size  Location     Type
  8608 ;;		None
  8609 ;; Auto vars:     Size  Location     Type
  8610 ;;  accyl           2   12[COMRAM] int 
  8611 ;;  accyh           2   10[COMRAM] int 
  8612 ;;  accy            2    8[COMRAM] int 
  8613 ;;  write           2    6[COMRAM] int 
  8614 ;; Return value:  Size  Location     Type
  8615 ;;                  2    2[COMRAM] int 
  8616 ;; Registers used:
  8617 ;;		wreg, status,2, status,0, cstack
  8618 ;; Tracked objects:
  8619 ;;		On entry : 0/0
  8620 ;;		On exit  : 0/0
  8621 ;;		Unchanged: 0/0
  8622 ;; Data sizes:     COMRAM   BANK0   BANK1   BANK2   BANK3   BANK4   BANK5   BANK6   BANK7
  8623 ;;      Params:         2       0       0       0       0       0       0       0       0
  8624 ;;      Locals:         8       0       0       0       0       0       0       0       0
  8625 ;;      Temps:          2       0       0       0       0       0       0       0       0
  8626 ;;      Totals:        12       0       0       0       0       0       0       0       0
  8627 ;;Total ram usage:       12 bytes
  8628 ;; Hardware stack levels used:    1
  8629 ;; Hardware stack levels required when called:    2
  8630 ;; This function calls:
  8631 ;;		_ReadI2C
  8632 ;;		i2_IdleI2C
  8633 ;;		i2_WriteI2C
  8634 ;; This function is called by:
  8635 ;;		_APP_DeviceMouseSOFHandler
  8636 ;; This function uses a non-reentrant model
  8637 ;;
  8638                           
  8639                           	psect	text45
  8640  00119A                     __ptext45:
  8641                           	opt stack 0
  8642  00119A                     _MPU6050_ReadAccY:
  8643                           	opt stack 21
  8644                           
  8645                           ;MPU6050.h: 300: int write;
  8646                           ;MPU6050.h: 301: signed int accy, accyh, accyl;
  8647                           ;MPU6050.h: 303: SSPCON2bits.SEN=1;while(SSPCON2bits.SEN);
  8648                           
  8649                           ;incstack = 0
  8650  00119A  80C5               	bsf	4037,0,c	;volatile
  8651  00119C                     i2l289:
  8652  00119C  B0C5               	btfsc	4037,0,c	;volatile
  8653  00119E  D7FE               	goto	i2l289
  8654                           
  8655                           ;MPU6050.h: 304: IdleI2C();
  8656  0011A0  ECED  F00E         	call	i2_IdleI2C	;wreg free
  8657                           
  8658                           ;MPU6050.h: 305: write = WriteI2C(0xD0);
  8659  0011A4  0ED0               	movlw	208
  8660  0011A6  ECF0  F00B         	call	i2_WriteI2C
  8661  0011AA  6E07               	movwf	MPU6050_ReadAccY@write,c
  8662  0011AC  6A08               	clrf	MPU6050_ReadAccY@write+1,c
  8663  0011AE  BE07               	btfsc	MPU6050_ReadAccY@write,7,c
  8664  0011B0  0608               	decf	MPU6050_ReadAccY@write+1,f,c
  8665                           
  8666                           ;MPU6050.h: 306: IdleI2C();
  8667  0011B2  ECED  F00E         	call	i2_IdleI2C	;wreg free
  8668                           
  8669                           ;MPU6050.h: 307: write = WriteI2C(0x3D);
  8670  0011B6  0E3D               	movlw	61
  8671  0011B8  ECF0  F00B         	call	i2_WriteI2C
  8672  0011BC  6E07               	movwf	MPU6050_ReadAccY@write,c
  8673  0011BE  6A08               	clrf	MPU6050_ReadAccY@write+1,c
  8674  0011C0  BE07               	btfsc	MPU6050_ReadAccY@write,7,c
  8675  0011C2  0608               	decf	MPU6050_ReadAccY@write+1,f,c
  8676                           
  8677                           ;MPU6050.h: 308: IdleI2C();
  8678  0011C4  ECED  F00E         	call	i2_IdleI2C	;wreg free
  8679                           
  8680                           ;MPU6050.h: 310: SSPCON2bits.RSEN=1;while(SSPCON2bits.RSEN);
  8681  0011C8  82C5               	bsf	4037,1,c	;volatile
  8682  0011CA                     i2l292:
  8683  0011CA  B2C5               	btfsc	4037,1,c	;volatile
  8684  0011CC  D7FE               	goto	i2l292
  8685                           
  8686                           ;MPU6050.h: 311: IdleI2C();
  8687  0011CE  ECED  F00E         	call	i2_IdleI2C	;wreg free
  8688                           
  8689                           ;MPU6050.h: 312: write = WriteI2C(0xD1);
  8690  0011D2  0ED1               	movlw	209
  8691  0011D4  ECF0  F00B         	call	i2_WriteI2C
  8692  0011D8  6E07               	movwf	MPU6050_ReadAccY@write,c
  8693  0011DA  6A08               	clrf	MPU6050_ReadAccY@write+1,c
  8694  0011DC  BE07               	btfsc	MPU6050_ReadAccY@write,7,c
  8695  0011DE  0608               	decf	MPU6050_ReadAccY@write+1,f,c
  8696                           
  8697                           ;MPU6050.h: 314: IdleI2C();
  8698  0011E0  ECED  F00E         	call	i2_IdleI2C	;wreg free
  8699                           
  8700                           ;MPU6050.h: 315: accyh = ReadI2C();
  8701  0011E4  ECCB  F00E         	call	_ReadI2C	;wreg free
  8702  0011E8  6E05               	movwf	??_MPU6050_ReadAccY& (0+255),c
  8703  0011EA  5005               	movf	??_MPU6050_ReadAccY,w,c
  8704  0011EC  6E0B               	movwf	MPU6050_ReadAccY@accyh,c
  8705  0011EE  6A0C               	clrf	MPU6050_ReadAccY@accyh+1,c
  8706                           
  8707                           ;MPU6050.h: 316: IdleI2C();
  8708  0011F0  ECED  F00E         	call	i2_IdleI2C	;wreg free
  8709                           
  8710                           ;MPU6050.h: 317: SSPCON2bits.ACKDT=0;SSPCON2bits.ACKEN=1;while(SSPCON2bits.ACKEN);
  8711  0011F4  9AC5               	bcf	4037,5,c	;volatile
  8712  0011F6  88C5               	bsf	4037,4,c	;volatile
  8713  0011F8                     i2l295:
  8714  0011F8  B8C5               	btfsc	4037,4,c	;volatile
  8715  0011FA  D7FE               	goto	i2l295
  8716                           
  8717                           ;MPU6050.h: 319: IdleI2C();
  8718  0011FC  ECED  F00E         	call	i2_IdleI2C	;wreg free
  8719                           
  8720                           ;MPU6050.h: 320: accyl = ReadI2C();
  8721  001200  ECCB  F00E         	call	_ReadI2C	;wreg free
  8722  001204  6E05               	movwf	??_MPU6050_ReadAccY& (0+255),c
  8723  001206  5005               	movf	??_MPU6050_ReadAccY,w,c
  8724  001208  6E0D               	movwf	MPU6050_ReadAccY@accyl,c
  8725  00120A  6A0E               	clrf	MPU6050_ReadAccY@accyl+1,c
  8726                           
  8727                           ;MPU6050.h: 321: IdleI2C();
  8728  00120C  ECED  F00E         	call	i2_IdleI2C	;wreg free
  8729                           
  8730                           ;MPU6050.h: 322: SSPCON2bits.ACKDT=1;SSPCON2bits.ACKEN=1;while(SSPCON2bits.ACKEN);
  8731  001210  8AC5               	bsf	4037,5,c	;volatile
  8732  001212  88C5               	bsf	4037,4,c	;volatile
  8733  001214                     i2l298:
  8734  001214  B8C5               	btfsc	4037,4,c	;volatile
  8735  001216  D7FE               	goto	i2l298
  8736                           
  8737                           ;MPU6050.h: 323: SSPCON2bits.PEN=1;while(SSPCON2bits.PEN);
  8738  001218  84C5               	bsf	4037,2,c	;volatile
  8739  00121A                     i2l301:
  8740  00121A  B4C5               	btfsc	4037,2,c	;volatile
  8741  00121C  D7FE               	goto	i2l301
  8742                           
  8743                           ;MPU6050.h: 325: accy = (accyh << 8) | accyl;
  8744  00121E  500B               	movf	MPU6050_ReadAccY@accyh,w,c
  8745  001220  6E06               	movwf	(??_MPU6050_ReadAccY+1)& (0+255),c
  8746  001222  6A05               	clrf	??_MPU6050_ReadAccY& (0+255),c
  8747  001224  500D               	movf	MPU6050_ReadAccY@accyl,w,c
  8748  001226  1005               	iorwf	??_MPU6050_ReadAccY,w,c
  8749  001228  6E09               	movwf	MPU6050_ReadAccY@accy,c
  8750  00122A  500E               	movf	MPU6050_ReadAccY@accyl+1,w,c
  8751  00122C  1006               	iorwf	??_MPU6050_ReadAccY+1,w,c
  8752  00122E  6E0A               	movwf	MPU6050_ReadAccY@accy+1,c
  8753                           
  8754                           ;MPU6050.h: 326: return accy;
  8755  001230  C009  F003         	movff	MPU6050_ReadAccY@accy,?_MPU6050_ReadAccY
  8756  001234  C00A  F004         	movff	MPU6050_ReadAccY@accy+1,?_MPU6050_ReadAccY+1
  8757  001238  0012               	return	
  8758  00123A                     __end_of_MPU6050_ReadAccY:
  8759                           	opt stack 0
  8760                           pclatu	equ	0xFFB
  8761                           pclath	equ	0xFFA
  8762                           tblptru	equ	0xFF8
  8763                           tblptrh	equ	0xFF7
  8764                           tblptrl	equ	0xFF6
  8765                           tablat	equ	0xFF5
  8766                           prodh	equ	0xFF4
  8767                           prodl	equ	0xFF3
  8768                           intcon	equ	0xFF2
  8769                           indf0	equ	0xFEF
  8770                           postinc0	equ	0xFEE
  8771                           fsr0h	equ	0xFEA
  8772                           fsr0l	equ	0xFE9
  8773                           wreg	equ	0xFE8
  8774                           indf1	equ	0xFE7
  8775                           postdec1	equ	0xFE5
  8776                           fsr1h	equ	0xFE2
  8777                           fsr1l	equ	0xFE1
  8778                           indf2	equ	0xFDF
  8779                           postinc2	equ	0xFDE
  8780                           postdec2	equ	0xFDD
  8781                           plusw2	equ	0xFDB
  8782                           fsr2h	equ	0xFDA
  8783                           fsr2l	equ	0xFD9
  8784                           status	equ	0xFD8
  8785                           
  8786 ;; *************** function _MPU6050_ReadAccX *****************
  8787 ;; Defined at:
  8788 ;;		line 267 in file "../../../../../../../../../Desktop/IMU/MPU6050.h"
  8789 ;; Parameters:    Size  Location     Type
  8790 ;;		None
  8791 ;; Auto vars:     Size  Location     Type
  8792 ;;  accxl           2   12[COMRAM] int 
  8793 ;;  accxh           2   10[COMRAM] int 
  8794 ;;  accx            2    8[COMRAM] int 
  8795 ;;  write           2    6[COMRAM] int 
  8796 ;; Return value:  Size  Location     Type
  8797 ;;                  2    2[COMRAM] int 
  8798 ;; Registers used:
  8799 ;;		wreg, status,2, status,0, cstack
  8800 ;; Tracked objects:
  8801 ;;		On entry : 0/0
  8802 ;;		On exit  : 0/0
  8803 ;;		Unchanged: 0/0
  8804 ;; Data sizes:     COMRAM   BANK0   BANK1   BANK2   BANK3   BANK4   BANK5   BANK6   BANK7
  8805 ;;      Params:         2       0       0       0       0       0       0       0       0
  8806 ;;      Locals:         8       0       0       0       0       0       0       0       0
  8807 ;;      Temps:          2       0       0       0       0       0       0       0       0
  8808 ;;      Totals:        12       0       0       0       0       0       0       0       0
  8809 ;;Total ram usage:       12 bytes
  8810 ;; Hardware stack levels used:    1
  8811 ;; Hardware stack levels required when called:    2
  8812 ;; This function calls:
  8813 ;;		_ReadI2C
  8814 ;;		i2_IdleI2C
  8815 ;;		i2_WriteI2C
  8816 ;; This function is called by:
  8817 ;;		_APP_DeviceMouseSOFHandler
  8818 ;; This function uses a non-reentrant model
  8819 ;;
  8820                           
  8821                           	psect	text46
  8822  00123A                     __ptext46:
  8823                           	opt stack 0
  8824  00123A                     _MPU6050_ReadAccX:
  8825                           	opt stack 21
  8826                           
  8827                           ;MPU6050.h: 269: int write;
  8828                           ;MPU6050.h: 270: signed int accx, accxh, accxl;
  8829                           ;MPU6050.h: 272: SSPCON2bits.SEN=1;while(SSPCON2bits.SEN);
  8830                           
  8831                           ;incstack = 0
  8832  00123A  80C5               	bsf	4037,0,c	;volatile
  8833  00123C                     i2l271:
  8834  00123C  B0C5               	btfsc	4037,0,c	;volatile
  8835  00123E  D7FE               	goto	i2l271
  8836                           
  8837                           ;MPU6050.h: 273: IdleI2C();
  8838  001240  ECED  F00E         	call	i2_IdleI2C	;wreg free
  8839                           
  8840                           ;MPU6050.h: 274: write = WriteI2C(0xD0);
  8841  001244  0ED0               	movlw	208
  8842  001246  ECF0  F00B         	call	i2_WriteI2C
  8843  00124A  6E07               	movwf	MPU6050_ReadAccX@write,c
  8844  00124C  6A08               	clrf	MPU6050_ReadAccX@write+1,c
  8845  00124E  BE07               	btfsc	MPU6050_ReadAccX@write,7,c
  8846  001250  0608               	decf	MPU6050_ReadAccX@write+1,f,c
  8847                           
  8848                           ;MPU6050.h: 275: IdleI2C();
  8849  001252  ECED  F00E         	call	i2_IdleI2C	;wreg free
  8850                           
  8851                           ;MPU6050.h: 276: write = WriteI2C(0x3B);
  8852  001256  0E3B               	movlw	59
  8853  001258  ECF0  F00B         	call	i2_WriteI2C
  8854  00125C  6E07               	movwf	MPU6050_ReadAccX@write,c
  8855  00125E  6A08               	clrf	MPU6050_ReadAccX@write+1,c
  8856  001260  BE07               	btfsc	MPU6050_ReadAccX@write,7,c
  8857  001262  0608               	decf	MPU6050_ReadAccX@write+1,f,c
  8858                           
  8859                           ;MPU6050.h: 277: IdleI2C();
  8860  001264  ECED  F00E         	call	i2_IdleI2C	;wreg free
  8861                           
  8862                           ;MPU6050.h: 279: SSPCON2bits.RSEN=1;while(SSPCON2bits.RSEN);
  8863  001268  82C5               	bsf	4037,1,c	;volatile
  8864  00126A                     i2l274:
  8865  00126A  B2C5               	btfsc	4037,1,c	;volatile
  8866  00126C  D7FE               	goto	i2l274
  8867                           
  8868                           ;MPU6050.h: 280: IdleI2C();
  8869  00126E  ECED  F00E         	call	i2_IdleI2C	;wreg free
  8870                           
  8871                           ;MPU6050.h: 281: write = WriteI2C(0xD1);
  8872  001272  0ED1               	movlw	209
  8873  001274  ECF0  F00B         	call	i2_WriteI2C
  8874  001278  6E07               	movwf	MPU6050_ReadAccX@write,c
  8875  00127A  6A08               	clrf	MPU6050_ReadAccX@write+1,c
  8876  00127C  BE07               	btfsc	MPU6050_ReadAccX@write,7,c
  8877  00127E  0608               	decf	MPU6050_ReadAccX@write+1,f,c
  8878                           
  8879                           ;MPU6050.h: 283: IdleI2C();
  8880  001280  ECED  F00E         	call	i2_IdleI2C	;wreg free
  8881                           
  8882                           ;MPU6050.h: 284: accxh = ReadI2C();
  8883  001284  ECCB  F00E         	call	_ReadI2C	;wreg free
  8884  001288  6E05               	movwf	??_MPU6050_ReadAccX& (0+255),c
  8885  00128A  5005               	movf	??_MPU6050_ReadAccX,w,c
  8886  00128C  6E0B               	movwf	MPU6050_ReadAccX@accxh,c
  8887  00128E  6A0C               	clrf	MPU6050_ReadAccX@accxh+1,c
  8888                           
  8889                           ;MPU6050.h: 285: IdleI2C();
  8890  001290  ECED  F00E         	call	i2_IdleI2C	;wreg free
  8891                           
  8892                           ;MPU6050.h: 286: SSPCON2bits.ACKDT=0;SSPCON2bits.ACKEN=1;while(SSPCON2bits.ACKEN);
  8893  001294  9AC5               	bcf	4037,5,c	;volatile
  8894  001296  88C5               	bsf	4037,4,c	;volatile
  8895  001298                     i2l277:
  8896  001298  B8C5               	btfsc	4037,4,c	;volatile
  8897  00129A  D7FE               	goto	i2l277
  8898                           
  8899                           ;MPU6050.h: 288: IdleI2C();
  8900  00129C  ECED  F00E         	call	i2_IdleI2C	;wreg free
  8901                           
  8902                           ;MPU6050.h: 289: accxl = ReadI2C();
  8903  0012A0  ECCB  F00E         	call	_ReadI2C	;wreg free
  8904  0012A4  6E05               	movwf	??_MPU6050_ReadAccX& (0+255),c
  8905  0012A6  5005               	movf	??_MPU6050_ReadAccX,w,c
  8906  0012A8  6E0D               	movwf	MPU6050_ReadAccX@accxl,c
  8907  0012AA  6A0E               	clrf	MPU6050_ReadAccX@accxl+1,c
  8908                           
  8909                           ;MPU6050.h: 290: IdleI2C();
  8910  0012AC  ECED  F00E         	call	i2_IdleI2C	;wreg free
  8911                           
  8912                           ;MPU6050.h: 291: SSPCON2bits.ACKDT=1;SSPCON2bits.ACKEN=1;while(SSPCON2bits.ACKEN);
  8913  0012B0  8AC5               	bsf	4037,5,c	;volatile
  8914  0012B2  88C5               	bsf	4037,4,c	;volatile
  8915  0012B4                     i2l280:
  8916  0012B4  B8C5               	btfsc	4037,4,c	;volatile
  8917  0012B6  D7FE               	goto	i2l280
  8918                           
  8919                           ;MPU6050.h: 292: SSPCON2bits.PEN=1;while(SSPCON2bits.PEN);
  8920  0012B8  84C5               	bsf	4037,2,c	;volatile
  8921  0012BA                     i2l283:
  8922  0012BA  B4C5               	btfsc	4037,2,c	;volatile
  8923  0012BC  D7FE               	goto	i2l283
  8924                           
  8925                           ;MPU6050.h: 294: accx = (accxh << 8) | accxl;
  8926  0012BE  500B               	movf	MPU6050_ReadAccX@accxh,w,c
  8927  0012C0  6E06               	movwf	(??_MPU6050_ReadAccX+1)& (0+255),c
  8928  0012C2  6A05               	clrf	??_MPU6050_ReadAccX& (0+255),c
  8929  0012C4  500D               	movf	MPU6050_ReadAccX@accxl,w,c
  8930  0012C6  1005               	iorwf	??_MPU6050_ReadAccX,w,c
  8931  0012C8  6E09               	movwf	MPU6050_ReadAccX@accx,c
  8932  0012CA  500E               	movf	MPU6050_ReadAccX@accxl+1,w,c
  8933  0012CC  1006               	iorwf	??_MPU6050_ReadAccX+1,w,c
  8934  0012CE  6E0A               	movwf	MPU6050_ReadAccX@accx+1,c
  8935                           
  8936                           ;MPU6050.h: 295: return accx;
  8937  0012D0  C009  F003         	movff	MPU6050_ReadAccX@accx,?_MPU6050_ReadAccX
  8938  0012D4  C00A  F004         	movff	MPU6050_ReadAccX@accx+1,?_MPU6050_ReadAccX+1
  8939  0012D8  0012               	return	
  8940  0012DA                     __end_of_MPU6050_ReadAccX:
  8941                           	opt stack 0
  8942                           pclatu	equ	0xFFB
  8943                           pclath	equ	0xFFA
  8944                           tblptru	equ	0xFF8
  8945                           tblptrh	equ	0xFF7
  8946                           tblptrl	equ	0xFF6
  8947                           tablat	equ	0xFF5
  8948                           prodh	equ	0xFF4
  8949                           prodl	equ	0xFF3
  8950                           intcon	equ	0xFF2
  8951                           indf0	equ	0xFEF
  8952                           postinc0	equ	0xFEE
  8953                           fsr0h	equ	0xFEA
  8954                           fsr0l	equ	0xFE9
  8955                           wreg	equ	0xFE8
  8956                           indf1	equ	0xFE7
  8957                           postdec1	equ	0xFE5
  8958                           fsr1h	equ	0xFE2
  8959                           fsr1l	equ	0xFE1
  8960                           indf2	equ	0xFDF
  8961                           postinc2	equ	0xFDE
  8962                           postdec2	equ	0xFDD
  8963                           plusw2	equ	0xFDB
  8964                           fsr2h	equ	0xFDA
  8965                           fsr2l	equ	0xFD9
  8966                           status	equ	0xFD8
  8967                           
  8968 ;; *************** function i2_WriteI2C *****************
  8969 ;; Defined at:
  8970 ;;		line 12 in file "../../../../../../../../../Desktop/IMU/i2c/i2c_writ.c"
  8971 ;; Parameters:    Size  Location     Type
  8972 ;;  data_out        1    wreg     unsigned char 
  8973 ;; Auto vars:     Size  Location     Type
  8974 ;;  data_out        1    1[COMRAM] unsigned char 
  8975 ;; Return value:  Size  Location     Type
  8976 ;;                  1    wreg      char 
  8977 ;; Registers used:
  8978 ;;		wreg, status,2, status,0, cstack
  8979 ;; Tracked objects:
  8980 ;;		On entry : 0/0
  8981 ;;		On exit  : 0/0
  8982 ;;		Unchanged: 0/0
  8983 ;; Data sizes:     COMRAM   BANK0   BANK1   BANK2   BANK3   BANK4   BANK5   BANK6   BANK7
  8984 ;;      Params:         0       0       0       0       0       0       0       0       0
  8985 ;;      Locals:         1       0       0       0       0       0       0       0       0
  8986 ;;      Temps:          0       0       0       0       0       0       0       0       0
  8987 ;;      Totals:         1       0       0       0       0       0       0       0       0
  8988 ;;Total ram usage:        1 bytes
  8989 ;; Hardware stack levels used:    1
  8990 ;; Hardware stack levels required when called:    1
  8991 ;; This function calls:
  8992 ;;		i2_IdleI2C
  8993 ;; This function is called by:
  8994 ;;		_MPU6050_ReadAccX
  8995 ;;		_MPU6050_ReadAccY
  8996 ;; This function uses a non-reentrant model
  8997 ;;
  8998                           
  8999                           	psect	text47
  9000  0017E0                     __ptext47:
  9001                           	opt stack 0
  9002  0017E0                     i2_WriteI2C:
  9003                           	opt stack 21
  9004                           
  9005                           ;incstack = 0
  9006                           ;i2WriteI2C@data_out stored from wreg
  9007  0017E0  6E02               	movwf	i2WriteI2C@data_out,c
  9008                           
  9009                           ;i2c_writ.c: 14: SSPBUF = data_out;
  9010  0017E2  C002  FFC9         	movff	i2WriteI2C@data_out,4041	;volatile
  9011                           
  9012                           ;i2c_writ.c: 15: if ( SSPCON1bits.WCOL )
  9013  0017E6  AEC6               	btfss	4038,7,c	;volatile
  9014  0017E8  D002               	goto	i2l3585
  9015                           
  9016                           ;i2c_writ.c: 16: return ( -1 );
  9017  0017EA  0EFF               	movlw	255
  9018  0017EC  0012               	return	
  9019  0017EE                     i2l3585:
  9020                           
  9021                           ;i2c_writ.c: 17: else
  9022                           ;i2c_writ.c: 18: {
  9023                           ;i2c_writ.c: 19: if( ((SSPCON1&0x0F)!=0x08) && ((SSPCON1&0x0F)!=0x0B) )
  9024  0017EE  50C6               	movf	4038,w,c	;volatile
  9025  0017F0  0B0F               	andlw	15
  9026  0017F2  0A08               	xorlw	8
  9027  0017F4  B4D8               	btfsc	status,2,c
  9028  0017F6  D00F               	goto	i2l3603
  9029  0017F8  50C6               	movf	4038,w,c	;volatile
  9030  0017FA  0B0F               	andlw	15
  9031  0017FC  0A0B               	xorlw	11
  9032  0017FE  B4D8               	btfsc	status,2,c
  9033  001800  D00A               	goto	i2l3603
  9034                           
  9035                           ;i2c_writ.c: 20: {
  9036                           ;i2c_writ.c: 21: SSPCON1bits.CKP = 1;
  9037  001802  88C6               	bsf	4038,4,c	;volatile
  9038  001804                     i2l89:
  9039  001804  A69E               	btfss	3998,3,c	;volatile
  9040  001806  D7FE               	goto	i2l89
  9041                           
  9042                           ;i2c_writ.c: 24: if ( ( !SSPSTATbits.R_W ) && ( !SSPSTATbits.BF ) )
  9043  001808  A4C7               	btfss	4039,2,c	;volatile
  9044  00180A  B0C7               	btfsc	4039,0,c	;volatile
  9045  00180C  D002               	goto	i2l3599
  9046                           
  9047                           ;i2c_writ.c: 25: {
  9048                           ;i2c_writ.c: 26: return ( -2 );
  9049  00180E  0EFE               	movlw	254
  9050                           
  9051                           ;i2c_writ.c: 27: }
  9052  001810  0012               	return	
  9053  001812                     i2l3599:
  9054                           
  9055                           ;i2c_writ.c: 28: else
  9056                           ;i2c_writ.c: 29: {
  9057                           ;i2c_writ.c: 30: return ( 0 );
  9058  001812  0E00               	movlw	0
  9059                           
  9060                           ;i2c_writ.c: 31: }
  9061                           ;i2c_writ.c: 32: }
  9062  001814  0012               	return	
  9063  001816                     i2l3603:
  9064                           
  9065                           ;i2c_writ.c: 33: else if( ((SSPCON1&0x0F)==0x08) || ((SSPCON1&0x0F)==0x0B) )
  9066  001816  50C6               	movf	4038,w,c	;volatile
  9067  001818  0B0F               	andlw	15
  9068  00181A  0A08               	xorlw	8
  9069  00181C  B4D8               	btfsc	status,2,c
  9070  00181E  D005               	goto	i2l98
  9071  001820  50C6               	movf	4038,w,c	;volatile
  9072  001822  0B0F               	andlw	15
  9073  001824  0A0B               	xorlw	11
  9074  001826  A4D8               	btfss	status,2,c
  9075  001828  0012               	return	
  9076  00182A                     i2l98:
  9077  00182A  B0C7               	btfsc	4039,0,c	;volatile
  9078  00182C  D7FE               	goto	i2l98
  9079                           
  9080                           ;i2c_writ.c: 36: IdleI2C();
  9081  00182E  ECED  F00E         	call	i2_IdleI2C	;wreg free
  9082                           
  9083                           ;i2c_writ.c: 37: if ( SSPCON2bits.ACKSTAT )
  9084  001832  ACC5               	btfss	4037,6,c	;volatile
  9085  001834  D002               	goto	i2l3617
  9086                           
  9087                           ;i2c_writ.c: 38: return ( -2 );
  9088  001836  0EFE               	movlw	254
  9089  001838  0012               	return	
  9090  00183A                     i2l3617:
  9091                           
  9092                           ;i2c_writ.c: 39: else return ( 0 );
  9093  00183A  0E00               	movlw	0
  9094  00183C  0012               	return	
  9095  00183E                     __end_ofi2_WriteI2C:
  9096                           	opt stack 0
  9097                           pclatu	equ	0xFFB
  9098                           pclath	equ	0xFFA
  9099                           tblptru	equ	0xFF8
  9100                           tblptrh	equ	0xFF7
  9101                           tblptrl	equ	0xFF6
  9102                           tablat	equ	0xFF5
  9103                           prodh	equ	0xFF4
  9104                           prodl	equ	0xFF3
  9105                           intcon	equ	0xFF2
  9106                           indf0	equ	0xFEF
  9107                           postinc0	equ	0xFEE
  9108                           fsr0h	equ	0xFEA
  9109                           fsr0l	equ	0xFE9
  9110                           wreg	equ	0xFE8
  9111                           indf1	equ	0xFE7
  9112                           postdec1	equ	0xFE5
  9113                           fsr1h	equ	0xFE2
  9114                           fsr1l	equ	0xFE1
  9115                           indf2	equ	0xFDF
  9116                           postinc2	equ	0xFDE
  9117                           postdec2	equ	0xFDD
  9118                           plusw2	equ	0xFDB
  9119                           fsr2h	equ	0xFDA
  9120                           fsr2l	equ	0xFD9
  9121                           status	equ	0xFD8
  9122                           
  9123 ;; *************** function i2_IdleI2C *****************
  9124 ;; Defined at:
  9125 ;;		line 24 in file "../../../../../../../../../Desktop/IMU/i2c/i2c_idle.c"
  9126 ;; Parameters:    Size  Location     Type
  9127 ;;		None
  9128 ;; Auto vars:     Size  Location     Type
  9129 ;;		None
  9130 ;; Return value:  Size  Location     Type
  9131 ;;		None               void
  9132 ;; Registers used:
  9133 ;;		wreg, status,2, status,0
  9134 ;; Tracked objects:
  9135 ;;		On entry : 0/0
  9136 ;;		On exit  : 0/0
  9137 ;;		Unchanged: 0/0
  9138 ;; Data sizes:     COMRAM   BANK0   BANK1   BANK2   BANK3   BANK4   BANK5   BANK6   BANK7
  9139 ;;      Params:         0       0       0       0       0       0       0       0       0
  9140 ;;      Locals:         0       0       0       0       0       0       0       0       0
  9141 ;;      Temps:          1       0       0       0       0       0       0       0       0
  9142 ;;      Totals:         1       0       0       0       0       0       0       0       0
  9143 ;;Total ram usage:        1 bytes
  9144 ;; Hardware stack levels used:    1
  9145 ;; This function calls:
  9146 ;;		Nothing
  9147 ;; This function is called by:
  9148 ;;		_MPU6050_ReadAccX
  9149 ;;		_MPU6050_ReadAccY
  9150 ;;		i2_WriteI2C
  9151 ;; This function uses a non-reentrant model
  9152 ;;
  9153                           
  9154                           	psect	text48
  9155  001DDA                     __ptext48:
  9156                           	opt stack 0
  9157  001DDA                     i2_IdleI2C:
  9158                           	opt stack 21
  9159  001DDA                     i2l3547:
  9160  001DDA  CFC5 F001          	movff	4037,??i2_IdleI2C	;volatile
  9161  001DDE  0E1F               	movlw	31
  9162  001DE0  1601               	andwf	??i2_IdleI2C,f,c
  9163  001DE2  A4D8               	btfss	status,2,c
  9164  001DE4  D7FA               	goto	i2l3547
  9165  001DE6  A4C7               	btfss	4039,2,c	;volatile
  9166  001DE8  0012               	return	
  9167  001DEA  D7F7               	goto	i2l3547
  9168  001DEC                     __end_ofi2_IdleI2C:
  9169                           	opt stack 0
  9170                           pclatu	equ	0xFFB
  9171                           pclath	equ	0xFFA
  9172                           tblptru	equ	0xFF8
  9173                           tblptrh	equ	0xFF7
  9174                           tblptrl	equ	0xFF6
  9175                           tablat	equ	0xFF5
  9176                           prodh	equ	0xFF4
  9177                           prodl	equ	0xFF3
  9178                           intcon	equ	0xFF2
  9179                           indf0	equ	0xFEF
  9180                           postinc0	equ	0xFEE
  9181                           fsr0h	equ	0xFEA
  9182                           fsr0l	equ	0xFE9
  9183                           wreg	equ	0xFE8
  9184                           indf1	equ	0xFE7
  9185                           postdec1	equ	0xFE5
  9186                           fsr1h	equ	0xFE2
  9187                           fsr1l	equ	0xFE1
  9188                           indf2	equ	0xFDF
  9189                           postinc2	equ	0xFDE
  9190                           postdec2	equ	0xFDD
  9191                           plusw2	equ	0xFDB
  9192                           fsr2h	equ	0xFDA
  9193                           fsr2l	equ	0xFD9
  9194                           status	equ	0xFD8
  9195                           
  9196 ;; *************** function _ReadI2C *****************
  9197 ;; Defined at:
  9198 ;;		line 11 in file "../../../../../../../../../Desktop/IMU/i2c/i2c_read.c"
  9199 ;; Parameters:    Size  Location     Type
  9200 ;;		None
  9201 ;; Auto vars:     Size  Location     Type
  9202 ;;		None
  9203 ;; Return value:  Size  Location     Type
  9204 ;;                  1    wreg      unsigned char 
  9205 ;; Registers used:
  9206 ;;		wreg, status,2, status,0
  9207 ;; Tracked objects:
  9208 ;;		On entry : 0/0
  9209 ;;		On exit  : 0/0
  9210 ;;		Unchanged: 0/0
  9211 ;; Data sizes:     COMRAM   BANK0   BANK1   BANK2   BANK3   BANK4   BANK5   BANK6   BANK7
  9212 ;;      Params:         0       0       0       0       0       0       0       0       0
  9213 ;;      Locals:         0       0       0       0       0       0       0       0       0
  9214 ;;      Temps:          0       0       0       0       0       0       0       0       0
  9215 ;;      Totals:         0       0       0       0       0       0       0       0       0
  9216 ;;Total ram usage:        0 bytes
  9217 ;; Hardware stack levels used:    1
  9218 ;; This function calls:
  9219 ;;		Nothing
  9220 ;; This function is called by:
  9221 ;;		_MPU6050_ReadAccX
  9222 ;;		_MPU6050_ReadAccY
  9223 ;;		_MPU6050_Read
  9224 ;;		_MPU6050_ReadAccZ
  9225 ;;		_MPU6050_ReadGyroAccX
  9226 ;;		_MPU6050_ReadGyroY
  9227 ;;		_MPU6050_ReadGyroZ
  9228 ;; This function uses a non-reentrant model
  9229 ;;
  9230                           
  9231                           	psect	text49
  9232  001D96                     __ptext49:
  9233                           	opt stack 0
  9234  001D96                     _ReadI2C:
  9235                           	opt stack 22
  9236                           
  9237                           ;i2c_read.c: 13: if( ((SSPCON1&0x0F)==0x08) || ((SSPCON1&0x0F)==0x0B) )
  9238                           
  9239                           ;incstack = 0
  9240  001D96  50C6               	movf	4038,w,c	;volatile
  9241  001D98  0B0F               	andlw	15
  9242  001D9A  0A08               	xorlw	8
  9243  001D9C  B4D8               	btfsc	status,2,c
  9244  001D9E  D004               	goto	i2l49
  9245  001DA0  50C6               	movf	4038,w,c	;volatile
  9246  001DA2  0B0F               	andlw	15
  9247  001DA4  0A0B               	xorlw	11
  9248  001DA6  B4D8               	btfsc	status,2,c
  9249  001DA8                     i2l49:
  9250                           
  9251                           ;i2c_read.c: 14: SSPCON2bits.RCEN = 1;
  9252  001DA8  86C5               	bsf	4037,3,c	;volatile
  9253  001DAA                     i2l50:
  9254  001DAA  A0C7               	btfss	4039,0,c	;volatile
  9255  001DAC  D7FE               	goto	i2l50
  9256                           
  9257                           ;i2c_read.c: 16: return ( SSPBUF );
  9258  001DAE  50C9               	movf	4041,w,c	;volatile
  9259  001DB0  0012               	return	
  9260  001DB2                     __end_of_ReadI2C:
  9261                           	opt stack 0
  9262                           pclatu	equ	0xFFB
  9263                           pclath	equ	0xFFA
  9264                           tblptru	equ	0xFF8
  9265                           tblptrh	equ	0xFF7
  9266                           tblptrl	equ	0xFF6
  9267                           tablat	equ	0xFF5
  9268                           prodh	equ	0xFF4
  9269                           prodl	equ	0xFF3
  9270                           intcon	equ	0xFF2
  9271                           indf0	equ	0xFEF
  9272                           postinc0	equ	0xFEE
  9273                           fsr0h	equ	0xFEA
  9274                           fsr0l	equ	0xFE9
  9275                           wreg	equ	0xFE8
  9276                           indf1	equ	0xFE7
  9277                           postdec1	equ	0xFE5
  9278                           fsr1h	equ	0xFE2
  9279                           fsr1l	equ	0xFE1
  9280                           indf2	equ	0xFDF
  9281                           postinc2	equ	0xFDE
  9282                           postdec2	equ	0xFDD
  9283                           plusw2	equ	0xFDB
  9284                           fsr2h	equ	0xFDA
  9285                           fsr2l	equ	0xFD9
  9286                           status	equ	0xFD8
  9287                           
  9288 ;; *************** function _APP_DeviceMouseInitialize *****************
  9289 ;; Defined at:
  9290 ;;		line 223 in file "../src/app_device_mouse.c"
  9291 ;; Parameters:    Size  Location     Type
  9292 ;;		None
  9293 ;; Auto vars:     Size  Location     Type
  9294 ;;		None
  9295 ;; Return value:  Size  Location     Type
  9296 ;;		None               void
  9297 ;; Registers used:
  9298 ;;		wreg, fsr2l, fsr2h, status,2, status,0, prodl, prodh, cstack
  9299 ;; Tracked objects:
  9300 ;;		On entry : 0/0
  9301 ;;		On exit  : 0/0
  9302 ;;		Unchanged: 0/0
  9303 ;; Data sizes:     COMRAM   BANK0   BANK1   BANK2   BANK3   BANK4   BANK5   BANK6   BANK7
  9304 ;;      Params:         0       0       0       0       0       0       0       0       0
  9305 ;;      Locals:         0       0       0       0       0       0       0       0       0
  9306 ;;      Temps:          0       0       0       0       0       0       0       0       0
  9307 ;;      Totals:         0       0       0       0       0       0       0       0       0
  9308 ;;Total ram usage:        0 bytes
  9309 ;; Hardware stack levels used:    1
  9310 ;; Hardware stack levels required when called:    2
  9311 ;; This function calls:
  9312 ;;		_USBEnableEndpoint
  9313 ;; This function is called by:
  9314 ;;		_USER_USB_CALLBACK_EVENT_HANDLER
  9315 ;; This function uses a non-reentrant model
  9316 ;;
  9317                           
  9318                           	psect	text50
  9319  001BFE                     __ptext50:
  9320                           	opt stack 0
  9321  001BFE                     _APP_DeviceMouseInitialize:
  9322                           	opt stack 22
  9323                           
  9324                           ;app_device_mouse.c: 230: mouse.movementMode = 1;
  9325                           
  9326                           ;incstack = 0
  9327  001BFE  0E01               	movlw	1
  9328  001C00  0100               	movlb	0	; () banked
  9329  001C02  6F65               	movwf	(_mouse+5)& (0+255),b
  9330                           
  9331                           ; BSR set to: 0
  9332                           ;app_device_mouse.c: 233: mouse.inputReport[0].handle = (0);
  9333  001C04  0E00               	movlw	0
  9334  001C06  0100               	movlb	0	; () banked
  9335  001C08  6F66               	movwf	(_mouse+6)& (0+255),b
  9336  001C0A  0E00               	movlw	0
  9337  001C0C  0100               	movlb	0	; () banked
  9338  001C0E  6F67               	movwf	(_mouse+7)& (0+255),b
  9339                           
  9340                           ; BSR set to: 0
  9341                           ;app_device_mouse.c: 235: mouse.sentStop = 0;
  9342  001C10  0E00               	movlw	0
  9343  001C12  0100               	movlb	0	; () banked
  9344  001C14  6F60               	movwf	_mouse& (0+255),b
  9345                           
  9346                           ; BSR set to: 0
  9347                           ;app_device_mouse.c: 237: mouse.movementCount = 0;
  9348  001C16  0E00               	movlw	0
  9349  001C18  0100               	movlb	0	; () banked
  9350  001C1A  6F64               	movwf	(_mouse+4)& (0+255),b
  9351  001C1C  0E00               	movlw	0
  9352  001C1E  6F63               	movwf	(_mouse+3)& (0+255),b
  9353                           
  9354                           ; BSR set to: 0
  9355                           ;app_device_mouse.c: 240: USBEnableEndpoint(1,0x02|0x10|0x08);
  9356  001C20  0E1A               	movlw	26
  9357  001C22  6E09               	movwf	USBEnableEndpoint@options,c
  9358  001C24  0E01               	movlw	1
  9359  001C26  ECF6  F00C         	call	_USBEnableEndpoint
  9360  001C2A  0012               	return		;funcret
  9361  001C2C                     __end_of_APP_DeviceMouseInitialize:
  9362                           	opt stack 0
  9363                           pclatu	equ	0xFFB
  9364                           pclath	equ	0xFFA
  9365                           tblptru	equ	0xFF8
  9366                           tblptrh	equ	0xFF7
  9367                           tblptrl	equ	0xFF6
  9368                           tablat	equ	0xFF5
  9369                           prodh	equ	0xFF4
  9370                           prodl	equ	0xFF3
  9371                           intcon	equ	0xFF2
  9372                           indf0	equ	0xFEF
  9373                           postinc0	equ	0xFEE
  9374                           fsr0h	equ	0xFEA
  9375                           fsr0l	equ	0xFE9
  9376                           wreg	equ	0xFE8
  9377                           indf1	equ	0xFE7
  9378                           postdec1	equ	0xFE5
  9379                           fsr1h	equ	0xFE2
  9380                           fsr1l	equ	0xFE1
  9381                           indf2	equ	0xFDF
  9382                           postinc2	equ	0xFDE
  9383                           postdec2	equ	0xFDD
  9384                           plusw2	equ	0xFDB
  9385                           fsr2h	equ	0xFDA
  9386                           fsr2l	equ	0xFD9
  9387                           status	equ	0xFD8
  9388                           
  9389 ;; *************** function _USBEnableEndpoint *****************
  9390 ;; Defined at:
  9391 ;;		line 896 in file "../../../../../../framework/usb/src/usb_device.c"
  9392 ;; Parameters:    Size  Location     Type
  9393 ;;  ep              1    wreg     unsigned char 
  9394 ;;  options         1    8[COMRAM] unsigned char 
  9395 ;; Auto vars:     Size  Location     Type
  9396 ;;  ep              1   11[COMRAM] unsigned char 
  9397 ;;  p               2    9[COMRAM] PTR unsigned char 
  9398 ;;		 -> UEP0(1), 
  9399 ;; Return value:  Size  Location     Type
  9400 ;;		None               void
  9401 ;; Registers used:
  9402 ;;		wreg, fsr2l, fsr2h, status,2, status,0, prodl, prodh, cstack
  9403 ;; Tracked objects:
  9404 ;;		On entry : 0/0
  9405 ;;		On exit  : 0/0
  9406 ;;		Unchanged: 0/0
  9407 ;; Data sizes:     COMRAM   BANK0   BANK1   BANK2   BANK3   BANK4   BANK5   BANK6   BANK7
  9408 ;;      Params:         1       0       0       0       0       0       0       0       0
  9409 ;;      Locals:         3       0       0       0       0       0       0       0       0
  9410 ;;      Temps:          0       0       0       0       0       0       0       0       0
  9411 ;;      Totals:         4       0       0       0       0       0       0       0       0
  9412 ;;Total ram usage:        4 bytes
  9413 ;; Hardware stack levels used:    1
  9414 ;; Hardware stack levels required when called:    1
  9415 ;; This function calls:
  9416 ;;		_USBConfigureEndpoint
  9417 ;; This function is called by:
  9418 ;;		_APP_DeviceMouseInitialize
  9419 ;; This function uses a non-reentrant model
  9420 ;;
  9421                           
  9422                           	psect	text51
  9423  0019EC                     __ptext51:
  9424                           	opt stack 0
  9425  0019EC                     _USBEnableEndpoint:
  9426                           	opt stack 22
  9427                           
  9428                           ;incstack = 0
  9429                           ;USBEnableEndpoint@ep stored from wreg
  9430  0019EC  6E0C               	movwf	USBEnableEndpoint@ep,c
  9431                           
  9432                           ;usb_device.c: 898: unsigned char* p;
  9433                           ;usb_device.c: 902: if(options & 0x04)
  9434  0019EE  A409               	btfss	USBEnableEndpoint@options,2,c
  9435  0019F0  D005               	goto	i2l3625
  9436                           
  9437                           ;usb_device.c: 903: {
  9438                           ;usb_device.c: 904: USBConfigureEndpoint(ep, 0);
  9439  0019F2  0E00               	movlw	0
  9440  0019F4  6E01               	movwf	USBConfigureEndpoint@direction,c
  9441  0019F6  500C               	movf	USBEnableEndpoint@ep,w,c
  9442  0019F8  ECBC  F009         	call	_USBConfigureEndpoint
  9443  0019FC                     i2l3625:
  9444                           
  9445                           ;usb_device.c: 905: }
  9446                           ;usb_device.c: 906: if(options & 0x02)
  9447  0019FC  A209               	btfss	USBEnableEndpoint@options,1,c
  9448  0019FE  D005               	goto	i2l3629
  9449                           
  9450                           ;usb_device.c: 907: {
  9451                           ;usb_device.c: 908: USBConfigureEndpoint(ep, 1);
  9452  001A00  0E01               	movlw	1
  9453  001A02  6E01               	movwf	USBConfigureEndpoint@direction,c
  9454  001A04  500C               	movf	USBEnableEndpoint@ep,w,c
  9455  001A06  ECBC  F009         	call	_USBConfigureEndpoint
  9456  001A0A                     i2l3629:
  9457                           
  9458                           ;usb_device.c: 909: }
  9459                           ;usb_device.c: 917: p = (unsigned char*)(&UEP0+ep);
  9460  001A0A  500C               	movf	USBEnableEndpoint@ep,w,c
  9461  001A0C  0D01               	mullw	1
  9462  001A0E  0E70               	movlw	112
  9463  001A10  24F3               	addwf	prodl,w,c
  9464  001A12  6E0A               	movwf	USBEnableEndpoint@p,c
  9465  001A14  0E0F               	movlw	15
  9466  001A16  20F4               	addwfc	prodh,w,c
  9467  001A18  6E0B               	movwf	USBEnableEndpoint@p+1,c
  9468                           
  9469                           ;usb_device.c: 919: *p = options;
  9470  001A1A  C00A  FFD9         	movff	USBEnableEndpoint@p,fsr2l
  9471  001A1E  C00B  FFDA         	movff	USBEnableEndpoint@p+1,fsr2h
  9472  001A22  C009  FFDF         	movff	USBEnableEndpoint@options,indf2
  9473  001A26  0012               	return		;funcret
  9474  001A28                     __end_of_USBEnableEndpoint:
  9475                           	opt stack 0
  9476                           pclatu	equ	0xFFB
  9477                           pclath	equ	0xFFA
  9478                           tblptru	equ	0xFF8
  9479                           tblptrh	equ	0xFF7
  9480                           tblptrl	equ	0xFF6
  9481                           tablat	equ	0xFF5
  9482                           prodh	equ	0xFF4
  9483                           prodl	equ	0xFF3
  9484                           intcon	equ	0xFF2
  9485                           indf0	equ	0xFEF
  9486                           postinc0	equ	0xFEE
  9487                           fsr0h	equ	0xFEA
  9488                           fsr0l	equ	0xFE9
  9489                           wreg	equ	0xFE8
  9490                           indf1	equ	0xFE7
  9491                           postdec1	equ	0xFE5
  9492                           fsr1h	equ	0xFE2
  9493                           fsr1l	equ	0xFE1
  9494                           indf2	equ	0xFDF
  9495                           postinc2	equ	0xFDE
  9496                           postdec2	equ	0xFDD
  9497                           plusw2	equ	0xFDB
  9498                           fsr2h	equ	0xFDA
  9499                           fsr2l	equ	0xFD9
  9500                           status	equ	0xFD8
  9501                           
  9502 ;; *************** function _USBConfigureEndpoint *****************
  9503 ;; Defined at:
  9504 ;;		line 1561 in file "../../../../../../framework/usb/src/usb_device.c"
  9505 ;; Parameters:    Size  Location     Type
  9506 ;;  EPNum           1    wreg     unsigned char 
  9507 ;;  direction       1    0[COMRAM] unsigned char 
  9508 ;; Auto vars:     Size  Location     Type
  9509 ;;  EPNum           1    5[COMRAM] unsigned char 
  9510 ;;  handle          2    6[COMRAM] PTR volatile struct __BD
  9511 ;;		 -> BDT(32), 
  9512 ;; Return value:  Size  Location     Type
  9513 ;;		None               void
  9514 ;; Registers used:
  9515 ;;		wreg, fsr2l, fsr2h, status,2, status,0, prodl, prodh
  9516 ;; Tracked objects:
  9517 ;;		On entry : 0/0
  9518 ;;		On exit  : 0/0
  9519 ;;		Unchanged: 0/0
  9520 ;; Data sizes:     COMRAM   BANK0   BANK1   BANK2   BANK3   BANK4   BANK5   BANK6   BANK7
  9521 ;;      Params:         1       0       0       0       0       0       0       0       0
  9522 ;;      Locals:         3       0       0       0       0       0       0       0       0
  9523 ;;      Temps:          4       0       0       0       0       0       0       0       0
  9524 ;;      Totals:         8       0       0       0       0       0       0       0       0
  9525 ;;Total ram usage:        8 bytes
  9526 ;; Hardware stack levels used:    1
  9527 ;; This function calls:
  9528 ;;		Nothing
  9529 ;; This function is called by:
  9530 ;;		_USBEnableEndpoint
  9531 ;; This function uses a non-reentrant model
  9532 ;;
  9533                           
  9534                           	psect	text52
  9535  001378                     __ptext52:
  9536                           	opt stack 0
  9537  001378                     _USBConfigureEndpoint:
  9538                           	opt stack 22
  9539                           
  9540                           ;incstack = 0
  9541                           ;USBConfigureEndpoint@EPNum stored from wreg
  9542  001378  6E06               	movwf	USBConfigureEndpoint@EPNum,c
  9543                           
  9544                           ;usb_device.c: 1563: volatile BDT_ENTRY* handle;
  9545                           ;usb_device.c: 1567: handle = (volatile BDT_ENTRY*)&BDT[0];
  9546  00137A  0E00               	movlw	0
  9547  00137C  6E07               	movwf	USBConfigureEndpoint@handle,c
  9548  00137E  0E04               	movlw	4
  9549  001380  6E08               	movwf	USBConfigureEndpoint@handle+1,c
  9550                           
  9551                           ;usb_device.c: 1568: handle += (4*EPNum+2*direction+0u);
  9552  001382  5001               	movf	USBConfigureEndpoint@direction,w,c
  9553  001384  6E02               	movwf	??_USBConfigureEndpoint& (0+255),c
  9554  001386  6A03               	clrf	(??_USBConfigureEndpoint+1)& (0+255),c
  9555  001388  90D8               	bcf	status,0,c
  9556  00138A  3602               	rlcf	??_USBConfigureEndpoint,f,c
  9557  00138C  3603               	rlcf	??_USBConfigureEndpoint+1,f,c
  9558  00138E  5006               	movf	USBConfigureEndpoint@EPNum,w,c
  9559  001390  6E04               	movwf	(??_USBConfigureEndpoint+2)& (0+255),c
  9560  001392  6A05               	clrf	(??_USBConfigureEndpoint+3)& (0+255),c
  9561  001394  90D8               	bcf	status,0,c
  9562  001396  3604               	rlcf	??_USBConfigureEndpoint+2,f,c
  9563  001398  3605               	rlcf	??_USBConfigureEndpoint+3,f,c
  9564  00139A  90D8               	bcf	status,0,c
  9565  00139C  3604               	rlcf	??_USBConfigureEndpoint+2,f,c
  9566  00139E  3605               	rlcf	??_USBConfigureEndpoint+3,f,c
  9567  0013A0  5002               	movf	??_USBConfigureEndpoint,w,c
  9568  0013A2  2604               	addwf	??_USBConfigureEndpoint+2,f,c
  9569  0013A4  5003               	movf	??_USBConfigureEndpoint+1,w,c
  9570  0013A6  2205               	addwfc	??_USBConfigureEndpoint+3,f,c
  9571  0013A8  90D8               	bcf	status,0,c
  9572  0013AA  3604               	rlcf	??_USBConfigureEndpoint+2,f,c
  9573  0013AC  3605               	rlcf	??_USBConfigureEndpoint+3,f,c
  9574  0013AE  90D8               	bcf	status,0,c
  9575  0013B0  3604               	rlcf	??_USBConfigureEndpoint+2,f,c
  9576  0013B2  3605               	rlcf	??_USBConfigureEndpoint+3,f,c
  9577  0013B4  5004               	movf	??_USBConfigureEndpoint+2,w,c
  9578  0013B6  2607               	addwf	USBConfigureEndpoint@handle,f,c
  9579  0013B8  5005               	movf	??_USBConfigureEndpoint+3,w,c
  9580  0013BA  2208               	addwfc	USBConfigureEndpoint@handle+1,f,c
  9581                           
  9582                           ;usb_device.c: 1570: handle->STAT.UOWN = 0;
  9583  0013BC  C007  FFD9         	movff	USBConfigureEndpoint@handle,fsr2l
  9584  0013C0  C008  FFDA         	movff	USBConfigureEndpoint@handle+1,fsr2h
  9585  0013C4  9EDF               	bcf	indf2,7,c
  9586                           
  9587                           ;usb_device.c: 1575: if(direction == 0)
  9588  0013C6  5001               	movf	USBConfigureEndpoint@direction,w,c
  9589  0013C8  A4D8               	btfss	status,2,c
  9590  0013CA  D007               	goto	i2l3569
  9591                           
  9592                           ;usb_device.c: 1576: {
  9593                           ;usb_device.c: 1577: pBDTEntryOut[EPNum] = handle;
  9594  0013CC  5006               	movf	USBConfigureEndpoint@EPNum,w,c
  9595  0013CE  0D02               	mullw	2
  9596  0013D0  0E7C               	movlw	low _pBDTEntryOut
  9597  0013D2  24F3               	addwf	prodl,w,c
  9598  0013D4  6ED9               	movwf	fsr2l,c
  9599  0013D6  0E00               	movlw	high _pBDTEntryOut
  9600  0013D8  D006               	goto	L12
  9601  0013DA                     i2l3569:
  9602                           
  9603                           ;usb_device.c: 1579: else
  9604                           ;usb_device.c: 1580: {
  9605                           ;usb_device.c: 1581: pBDTEntryIn[EPNum] = handle;
  9606  0013DA  5006               	movf	USBConfigureEndpoint@EPNum,w,c
  9607  0013DC  0D02               	mullw	2
  9608  0013DE  0E78               	movlw	low _pBDTEntryIn
  9609  0013E0  24F3               	addwf	prodl,w,c
  9610  0013E2  6ED9               	movwf	fsr2l,c
  9611  0013E4  0E00               	movlw	high _pBDTEntryIn
  9612  0013E6                     L12:
  9613  0013E6  20F4               	addwfc	prodh,w,c
  9614  0013E8  6EDA               	movwf	fsr2h,c
  9615  0013EA  C007  FFDE         	movff	USBConfigureEndpoint@handle,postinc2
  9616  0013EE  C008  FFDD         	movff	USBConfigureEndpoint@handle+1,postdec2
  9617                           
  9618                           ;usb_device.c: 1582: }
  9619                           ;usb_device.c: 1585: handle->STAT.DTS = 0;
  9620  0013F2  C007  FFD9         	movff	USBConfigureEndpoint@handle,fsr2l
  9621  0013F6  C008  FFDA         	movff	USBConfigureEndpoint@handle+1,fsr2h
  9622  0013FA  9CDF               	bcf	indf2,6,c
  9623                           
  9624                           ;usb_device.c: 1586: (handle+1)->STAT.DTS = 1;
  9625  0013FC  EE20 F004          	lfsr	2,4
  9626  001400  5007               	movf	USBConfigureEndpoint@handle,w,c
  9627  001402  26D9               	addwf	fsr2l,f,c
  9628  001404  5008               	movf	USBConfigureEndpoint@handle+1,w,c
  9629  001406  22DA               	addwfc	fsr2h,f,c
  9630  001408  8CDF               	bsf	indf2,6,c
  9631  00140A  0012               	return		;funcret
  9632  00140C                     __end_of_USBConfigureEndpoint:
  9633                           	opt stack 0
  9634                           pclatu	equ	0xFFB
  9635                           pclath	equ	0xFFA
  9636                           tblptru	equ	0xFF8
  9637                           tblptrh	equ	0xFF7
  9638                           tblptrl	equ	0xFF6
  9639                           tablat	equ	0xFF5
  9640                           prodh	equ	0xFF4
  9641                           prodl	equ	0xFF3
  9642                           intcon	equ	0xFF2
  9643                           indf0	equ	0xFEF
  9644                           postinc0	equ	0xFEE
  9645                           fsr0h	equ	0xFEA
  9646                           fsr0l	equ	0xFE9
  9647                           wreg	equ	0xFE8
  9648                           indf1	equ	0xFE7
  9649                           postdec1	equ	0xFE5
  9650                           fsr1h	equ	0xFE2
  9651                           fsr1l	equ	0xFE1
  9652                           indf2	equ	0xFDF
  9653                           postinc2	equ	0xFDE
  9654                           postdec2	equ	0xFDD
  9655                           plusw2	equ	0xFDB
  9656                           fsr2h	equ	0xFDA
  9657                           fsr2l	equ	0xFD9
  9658                           status	equ	0xFD8
  9659                           
  9660 ;; *************** function _USBCtrlTrfOutHandler *****************
  9661 ;; Defined at:
  9662 ;;		line 2555 in file "../../../../../../framework/usb/src/usb_device.c"
  9663 ;; Parameters:    Size  Location     Type
  9664 ;;		None
  9665 ;; Auto vars:     Size  Location     Type
  9666 ;;		None
  9667 ;; Return value:  Size  Location     Type
  9668 ;;		None               void
  9669 ;; Registers used:
  9670 ;;		wreg, fsr1l, fsr1h, fsr2l, fsr2h, status,2, status,0, prodl, prodh, cstack
  9671 ;; Tracked objects:
  9672 ;;		On entry : 0/0
  9673 ;;		On exit  : 0/0
  9674 ;;		Unchanged: 0/0
  9675 ;; Data sizes:     COMRAM   BANK0   BANK1   BANK2   BANK3   BANK4   BANK5   BANK6   BANK7
  9676 ;;      Params:         0       0       0       0       0       0       0       0       0
  9677 ;;      Locals:         0       0       0       0       0       0       0       0       0
  9678 ;;      Temps:          0       0       0       0       0       0       0       0       0
  9679 ;;      Totals:         0       0       0       0       0       0       0       0       0
  9680 ;;Total ram usage:        0 bytes
  9681 ;; Hardware stack levels used:    1
  9682 ;; Hardware stack levels required when called:    2
  9683 ;; This function calls:
  9684 ;;		_USBCtrlTrfRxService
  9685 ;; This function is called by:
  9686 ;;		_USBCtrlEPService
  9687 ;; This function uses a non-reentrant model
  9688 ;;
  9689                           
  9690                           	psect	text53
  9691  00183E                     __ptext53:
  9692                           	opt stack 0
  9693  00183E                     _USBCtrlTrfOutHandler:
  9694                           	opt stack 22
  9695                           
  9696                           ;usb_device.c: 2557: if(controlTransferState == 2)
  9697                           
  9698                           ;incstack = 0
  9699  00183E  0E02               	movlw	2
  9700  001840  1856               	xorwf	_controlTransferState,w,c	;volatile
  9701  001842  A4D8               	btfss	status,2,c
  9702  001844  D003               	goto	i2l4425
  9703                           
  9704                           ;usb_device.c: 2558: {
  9705                           ;usb_device.c: 2559: USBCtrlTrfRxService();
  9706  001846  EC71  F004         	call	_USBCtrlTrfRxService	;wreg free
  9707                           
  9708                           ;usb_device.c: 2560: }
  9709  00184A  0012               	return	
  9710  00184C                     i2l4425:
  9711                           
  9712                           ;usb_device.c: 2561: else
  9713                           ;usb_device.c: 2562: {
  9714                           ;usb_device.c: 2565: controlTransferState = 0;
  9715  00184C  0E00               	movlw	0
  9716  00184E  6E56               	movwf	_controlTransferState,c	;volatile
  9717                           
  9718                           ;usb_device.c: 2572: if(BothEP0OutUOWNsSet == 0)
  9719  001850  504B               	movf	_BothEP0OutUOWNsSet,w,c	;volatile
  9720  001852  A4D8               	btfss	status,2,c
  9721  001854  D01F               	goto	i2l4433
  9722                           
  9723                           ;usb_device.c: 2573: {
  9724                           ;usb_device.c: 2574: pBDTEntryEP0OutNext->CNT = 8;
  9725  001856  EE20 F001          	lfsr	2,1
  9726  00185A  5047               	movf	_pBDTEntryEP0OutNext,w,c
  9727  00185C  26D9               	addwf	fsr2l,f,c
  9728  00185E  5048               	movf	_pBDTEntryEP0OutNext+1,w,c
  9729  001860  22DA               	addwfc	fsr2h,f,c
  9730  001862  0E08               	movlw	8
  9731  001864  6EDF               	movwf	indf2,c
  9732                           
  9733                           ;usb_device.c: 2575: pBDTEntryEP0OutNext->ADR = ((uint16_t)(&SetupPkt));
  9734  001866  EE20 F002          	lfsr	2,2
  9735  00186A  5047               	movf	_pBDTEntryEP0OutNext,w,c
  9736  00186C  26D9               	addwf	fsr2l,f,c
  9737  00186E  5048               	movf	_pBDTEntryEP0OutNext+1,w,c
  9738  001870  22DA               	addwfc	fsr2h,f,c
  9739  001872  0E20               	movlw	32
  9740  001874  6EDE               	movwf	postinc2,c
  9741  001876  0E04               	movlw	4
  9742  001878  6EDD               	movwf	postdec2,c
  9743                           
  9744                           ;usb_device.c: 2576: pBDTEntryEP0OutNext->STAT.Val = 0x00|(0x08 & 0x08)|0x04;
  9745  00187A  C047  FFD9         	movff	_pBDTEntryEP0OutNext,fsr2l
  9746  00187E  C048  FFDA         	movff	_pBDTEntryEP0OutNext+1,fsr2h
  9747  001882  0E0C               	movlw	12
  9748  001884  6EDF               	movwf	indf2,c
  9749                           
  9750                           ;usb_device.c: 2577: pBDTEntryEP0OutNext->STAT.Val |= 0x80;
  9751  001886  C047  FFD9         	movff	_pBDTEntryEP0OutNext,fsr2l
  9752  00188A  C048  FFDA         	movff	_pBDTEntryEP0OutNext+1,fsr2h
  9753  00188E  0E00               	movlw	0
  9754  001890  8EDB               	bsf	plusw2,7,c
  9755                           
  9756                           ;usb_device.c: 2578: }
  9757  001892  0012               	return	
  9758  001894                     i2l4433:
  9759                           
  9760                           ;usb_device.c: 2579: else
  9761                           ;usb_device.c: 2580: {
  9762                           ;usb_device.c: 2581: BothEP0OutUOWNsSet = 0;
  9763  001894  0E00               	movlw	0
  9764  001896  6E4B               	movwf	_BothEP0OutUOWNsSet,c	;volatile
  9765  001898  0012               	return	
  9766  00189A                     __end_of_USBCtrlTrfOutHandler:
  9767                           	opt stack 0
  9768                           pclatu	equ	0xFFB
  9769                           pclath	equ	0xFFA
  9770                           tblptru	equ	0xFF8
  9771                           tblptrh	equ	0xFF7
  9772                           tblptrl	equ	0xFF6
  9773                           tablat	equ	0xFF5
  9774                           prodh	equ	0xFF4
  9775                           prodl	equ	0xFF3
  9776                           intcon	equ	0xFF2
  9777                           indf0	equ	0xFEF
  9778                           postinc0	equ	0xFEE
  9779                           fsr0h	equ	0xFEA
  9780                           fsr0l	equ	0xFE9
  9781                           wreg	equ	0xFE8
  9782                           indf1	equ	0xFE7
  9783                           postdec1	equ	0xFE5
  9784                           fsr1h	equ	0xFE2
  9785                           fsr1l	equ	0xFE1
  9786                           indf2	equ	0xFDF
  9787                           postinc2	equ	0xFDE
  9788                           postdec2	equ	0xFDD
  9789                           plusw2	equ	0xFDB
  9790                           fsr2h	equ	0xFDA
  9791                           fsr2l	equ	0xFD9
  9792                           status	equ	0xFD8
  9793                           
  9794 ;; *************** function _USBCtrlTrfRxService *****************
  9795 ;; Defined at:
  9796 ;;		line 1870 in file "../../../../../../framework/usb/src/usb_device.c"
  9797 ;; Parameters:    Size  Location     Type
  9798 ;;		None
  9799 ;; Auto vars:     Size  Location     Type
  9800 ;;  byteToRead      1    1[COMRAM] unsigned char 
  9801 ;;  i               1    0[COMRAM] unsigned char 
  9802 ;; Return value:  Size  Location     Type
  9803 ;;		None               void
  9804 ;; Registers used:
  9805 ;;		wreg, fsr1l, fsr1h, fsr2l, fsr2h, status,2, status,0, prodl, prodh, cstack
  9806 ;; Tracked objects:
  9807 ;;		On entry : 0/0
  9808 ;;		On exit  : 0/0
  9809 ;;		Unchanged: 0/0
  9810 ;; Data sizes:     COMRAM   BANK0   BANK1   BANK2   BANK3   BANK4   BANK5   BANK6   BANK7
  9811 ;;      Params:         0       0       0       0       0       0       0       0       0
  9812 ;;      Locals:         2       0       0       0       0       0       0       0       0
  9813 ;;      Temps:          0       0       0       0       0       0       0       0       0
  9814 ;;      Totals:         2       0       0       0       0       0       0       0       0
  9815 ;;Total ram usage:        2 bytes
  9816 ;; Hardware stack levels used:    1
  9817 ;; Hardware stack levels required when called:    1
  9818 ;; This function calls:
  9819 ;;		_USBCtrlEPAllowStatusStage
  9820 ;; This function is called by:
  9821 ;;		_USBCtrlTrfOutHandler
  9822 ;; This function uses a non-reentrant model
  9823 ;;
  9824                           
  9825                           	psect	text54
  9826  0008E2                     __ptext54:
  9827                           	opt stack 0
  9828  0008E2                     _USBCtrlTrfRxService:
  9829                           	opt stack 22
  9830                           
  9831                           ;usb_device.c: 1872: uint8_t byteToRead;
  9832                           ;usb_device.c: 1873: uint8_t i;
  9833                           ;usb_device.c: 1877: byteToRead = pBDTEntryEP0OutCurrent->CNT;
  9834                           
  9835                           ;incstack = 0
  9836  0008E2  EE20 F001          	lfsr	2,1
  9837  0008E6  5045               	movf	_pBDTEntryEP0OutCurrent,w,c
  9838  0008E8  26D9               	addwf	fsr2l,f,c
  9839  0008EA  5046               	movf	_pBDTEntryEP0OutCurrent+1,w,c
  9840  0008EC  22DA               	addwfc	fsr2h,f,c
  9841  0008EE  50DF               	movf	indf2,w,c
  9842  0008F0  6E02               	movwf	USBCtrlTrfRxService@byteToRead,c
  9843                           
  9844                           ;usb_device.c: 1883: if(byteToRead > outPipes[0].wCount.Val)
  9845  0008F2  5002               	movf	USBCtrlTrfRxService@byteToRead,w,c
  9846  0008F4  0100               	movlb	0	; () banked
  9847  0008F6  5D6E               	subwf	(_outPipes+4)& (0+255),w,b	;volatile
  9848  0008F8  0E00               	movlw	0
  9849  0008FA  596F               	subwfb	(_outPipes+5)& (0+255),w,b	;volatile
  9850  0008FC  A0D8               	btfss	status,0,c
  9851                           
  9852                           ; BSR set to: 0
  9853                           ;usb_device.c: 1884: {
  9854                           ;usb_device.c: 1885: byteToRead = outPipes[0].wCount.Val;
  9855  0008FE  C06E  F002         	movff	_outPipes+4,USBCtrlTrfRxService@byteToRead	;volatile
  9856                           
  9857                           ; BSR set to: 0
  9858                           ;usb_device.c: 1886: }
  9859                           ;usb_device.c: 1888: outPipes[0].wCount.Val -= byteToRead;
  9860                           
  9861                           ; BSR set to: 0
  9862  000902  5002               	movf	USBCtrlTrfRxService@byteToRead,w,c
  9863  000904  0100               	movlb	0	; () banked
  9864  000906  5F6E               	subwf	(_outPipes+4)& (0+255),f,b	;volatile
  9865  000908  0E00               	movlw	0
  9866  00090A  5B6F               	subwfb	(_outPipes+5)& (0+255),f,b	;volatile
  9867                           
  9868                           ; BSR set to: 0
  9869                           ;usb_device.c: 1892: for(i=0;i<byteToRead;i++)
  9870  00090C  0E00               	movlw	0
  9871  00090E  6E01               	movwf	USBCtrlTrfRxService@i,c
  9872  000910  D012               	goto	i2l4301
  9873  000912                     i2l4295:
  9874                           
  9875                           ; BSR set to: 0
  9876                           ;usb_device.c: 1893: {
  9877                           ;usb_device.c: 1894: *outPipes[0].pDst.bRam++ = CtrlTrfData[i];
  9878  000912  5001               	movf	USBCtrlTrfRxService@i,w,c
  9879  000914  0D01               	mullw	1
  9880  000916  0E28               	movlw	40
  9881  000918  24F3               	addwf	prodl,w,c
  9882  00091A  6ED9               	movwf	fsr2l,c
  9883  00091C  0E04               	movlw	4
  9884  00091E  20F4               	addwfc	prodh,w,c
  9885  000920  6EDA               	movwf	fsr2h,c
  9886  000922  C06A  FFE1         	movff	_outPipes,fsr1l	;volatile
  9887  000926  C06B  FFE2         	movff	_outPipes+1,fsr1h	;volatile
  9888  00092A  CFDF FFE7          	movff	indf2,indf1
  9889                           
  9890                           ; BSR set to: 0
  9891  00092E  0100               	movlb	0	; () banked
  9892  000930  4B6A               	infsnz	_outPipes& (0+255),f,b	;volatile
  9893  000932  2B6B               	incf	(_outPipes+1)& (0+255),f,b	;volatile
  9894                           
  9895                           ; BSR set to: 0
  9896  000934  2A01               	incf	USBCtrlTrfRxService@i,f,c
  9897  000936                     i2l4301:
  9898                           
  9899                           ; BSR set to: 0
  9900  000936  5002               	movf	USBCtrlTrfRxService@byteToRead,w,c
  9901  000938  5C01               	subwf	USBCtrlTrfRxService@i,w,c
  9902  00093A  A0D8               	btfss	status,0,c
  9903  00093C  D7EA               	goto	i2l4295
  9904                           
  9905                           ; BSR set to: 0
  9906                           ;usb_device.c: 1895: }
  9907                           ;usb_device.c: 1899: if(outPipes[0].wCount.Val > 0)
  9908                           
  9909                           ; BSR set to: 0
  9910  00093E  0100               	movlb	0	; () banked
  9911  000940  516E               	movf	(_outPipes+4)& (0+255),w,b	;volatile
  9912  000942  0100               	movlb	0	; () banked
  9913  000944  116F               	iorwf	(_outPipes+5)& (0+255),w,b	;volatile
  9914  000946  B4D8               	btfsc	status,2,c
  9915  000948  D032               	goto	i2l4317
  9916                           
  9917                           ; BSR set to: 0
  9918                           ;usb_device.c: 1900: {
  9919                           ;usb_device.c: 1901: pBDTEntryEP0OutNext->CNT = 8;
  9920  00094A  EE20 F001          	lfsr	2,1
  9921  00094E  5047               	movf	_pBDTEntryEP0OutNext,w,c
  9922  000950  26D9               	addwf	fsr2l,f,c
  9923  000952  5048               	movf	_pBDTEntryEP0OutNext+1,w,c
  9924  000954  22DA               	addwfc	fsr2h,f,c
  9925  000956  0E08               	movlw	8
  9926  000958  6EDF               	movwf	indf2,c
  9927                           
  9928                           ;usb_device.c: 1902: pBDTEntryEP0OutNext->ADR = ((uint16_t)(&CtrlTrfData));
  9929  00095A  EE20 F002          	lfsr	2,2
  9930  00095E  5047               	movf	_pBDTEntryEP0OutNext,w,c
  9931  000960  26D9               	addwf	fsr2l,f,c
  9932  000962  5048               	movf	_pBDTEntryEP0OutNext+1,w,c
  9933  000964  22DA               	addwfc	fsr2h,f,c
  9934  000966  0E28               	movlw	40
  9935  000968  6EDE               	movwf	postinc2,c
  9936  00096A  0E04               	movlw	4
  9937  00096C  6EDD               	movwf	postdec2,c
  9938                           
  9939                           ; BSR set to: 0
  9940                           ;usb_device.c: 1903: if(pBDTEntryEP0OutCurrent->STAT.DTS == 0)
  9941  00096E  C045  FFD9         	movff	_pBDTEntryEP0OutCurrent,fsr2l
  9942  000972  C046  FFDA         	movff	_pBDTEntryEP0OutCurrent+1,fsr2h
  9943  000976  BCDF               	btfsc	indf2,6,c
  9944  000978  D00D               	goto	i2l4313
  9945                           
  9946                           ; BSR set to: 0
  9947                           ;usb_device.c: 1904: {
  9948                           ;usb_device.c: 1905: pBDTEntryEP0OutNext->STAT.Val = 0x40|(0x08 & 0x08);
  9949  00097A  C047  FFD9         	movff	_pBDTEntryEP0OutNext,fsr2l
  9950  00097E  C048  FFDA         	movff	_pBDTEntryEP0OutNext+1,fsr2h
  9951  000982  0E48               	movlw	72
  9952  000984  6EDF               	movwf	indf2,c
  9953                           
  9954                           ; BSR set to: 0
  9955                           ;usb_device.c: 1906: pBDTEntryEP0OutNext->STAT.Val |= 0x80;
  9956  000986  C047  FFD9         	movff	_pBDTEntryEP0OutNext,fsr2l
  9957  00098A  C048  FFDA         	movff	_pBDTEntryEP0OutNext+1,fsr2h
  9958  00098E  0E00               	movlw	0
  9959  000990  8EDB               	bsf	plusw2,7,c
  9960                           
  9961                           ;usb_device.c: 1907: }
  9962  000992  0012               	return	
  9963  000994                     i2l4313:
  9964                           
  9965                           ; BSR set to: 0
  9966                           ;usb_device.c: 1908: else
  9967                           ;usb_device.c: 1909: {
  9968                           ;usb_device.c: 1910: pBDTEntryEP0OutNext->STAT.Val = 0x00|(0x08 & 0x08);
  9969  000994  C047  FFD9         	movff	_pBDTEntryEP0OutNext,fsr2l
  9970  000998  C048  FFDA         	movff	_pBDTEntryEP0OutNext+1,fsr2h
  9971  00099C  0E08               	movlw	8
  9972  00099E  6EDF               	movwf	indf2,c
  9973                           
  9974                           ; BSR set to: 0
  9975                           ;usb_device.c: 1911: pBDTEntryEP0OutNext->STAT.Val |= 0x80;
  9976  0009A0  C047  FFD9         	movff	_pBDTEntryEP0OutNext,fsr2l
  9977  0009A4  C048  FFDA         	movff	_pBDTEntryEP0OutNext+1,fsr2h
  9978  0009A8  0E00               	movlw	0
  9979  0009AA  8EDB               	bsf	plusw2,7,c
  9980                           
  9981                           ; BSR set to: 0
  9982                           ;usb_device.c: 1912: }
  9983                           ;usb_device.c: 1913: }
  9984  0009AC  0012               	return	
  9985  0009AE                     i2l4317:
  9986                           
  9987                           ; BSR set to: 0
  9988                           ;usb_device.c: 1914: else
  9989                           ;usb_device.c: 1915: {
  9990                           ;usb_device.c: 1919: pBDTEntryEP0OutNext->CNT = 8;
  9991  0009AE  EE20 F001          	lfsr	2,1
  9992  0009B2  5047               	movf	_pBDTEntryEP0OutNext,w,c
  9993  0009B4  26D9               	addwf	fsr2l,f,c
  9994  0009B6  5048               	movf	_pBDTEntryEP0OutNext+1,w,c
  9995  0009B8  22DA               	addwfc	fsr2h,f,c
  9996  0009BA  0E08               	movlw	8
  9997  0009BC  6EDF               	movwf	indf2,c
  9998                           
  9999                           ;usb_device.c: 1920: pBDTEntryEP0OutNext->ADR = ((uint16_t)(&SetupPkt));
 10000  0009BE  EE20 F002          	lfsr	2,2
 10001  0009C2  5047               	movf	_pBDTEntryEP0OutNext,w,c
 10002  0009C4  26D9               	addwf	fsr2l,f,c
 10003  0009C6  5048               	movf	_pBDTEntryEP0OutNext+1,w,c
 10004  0009C8  22DA               	addwfc	fsr2h,f,c
 10005  0009CA  0E20               	movlw	32
 10006  0009CC  6EDE               	movwf	postinc2,c
 10007  0009CE  0E04               	movlw	4
 10008  0009D0  6EDD               	movwf	postdec2,c
 10009                           
 10010                           ; BSR set to: 0
 10011                           ;usb_device.c: 1924: pBDTEntryEP0OutNext->STAT.Val = 0x04;
 10012  0009D2  C047  FFD9         	movff	_pBDTEntryEP0OutNext,fsr2l
 10013  0009D6  C048  FFDA         	movff	_pBDTEntryEP0OutNext+1,fsr2h
 10014  0009DA  0E04               	movlw	4
 10015  0009DC  6EDF               	movwf	indf2,c
 10016                           
 10017                           ; BSR set to: 0
 10018                           ;usb_device.c: 1925: pBDTEntryEP0OutNext->STAT.Val |= 0x80;
 10019  0009DE  C047  FFD9         	movff	_pBDTEntryEP0OutNext,fsr2l
 10020  0009E2  C048  FFDA         	movff	_pBDTEntryEP0OutNext+1,fsr2h
 10021  0009E6  0E00               	movlw	0
 10022  0009E8  8EDB               	bsf	plusw2,7,c
 10023                           
 10024                           ; BSR set to: 0
 10025                           ;usb_device.c: 1944: }
 10026                           ;usb_device.c: 1945: outPipes[0].info.bits.busy = 0;
 10027                           
 10028                           ; BSR set to: 0
 10029                           ;usb_device.c: 1933: {
 10030                           ;usb_device.c: 1939: outPipes[0].pFunc();
 10031  0009EA  0100               	movlb	0	; () banked
 10032  0009EC  9F6D               	bcf	(_outPipes+3)& (0+255),7,b	;volatile
 10033                           
 10034                           ; BSR set to: 0
 10035                           ;usb_device.c: 1959: if(USBDeferStatusStagePacket == 0)
 10036  0009EE  5050               	movf	_USBDeferStatusStagePacket,w,c	;volatile
 10037  0009F0  A4D8               	btfss	status,2,c
 10038  0009F2  0012               	return	
 10039                           
 10040                           ; BSR set to: 0
 10041                           ;usb_device.c: 1960: {
 10042                           ;usb_device.c: 1961: USBCtrlEPAllowStatusStage();
 10043  0009F4  EC4F  F007         	call	_USBCtrlEPAllowStatusStage	;wreg free
 10044  0009F8  0012               	return	
 10045  0009FA                     __end_of_USBCtrlTrfRxService:
 10046                           	opt stack 0
 10047                           pclatu	equ	0xFFB
 10048                           pclath	equ	0xFFA
 10049                           tblptru	equ	0xFF8
 10050                           tblptrh	equ	0xFF7
 10051                           tblptrl	equ	0xFF6
 10052                           tablat	equ	0xFF5
 10053                           prodh	equ	0xFF4
 10054                           prodl	equ	0xFF3
 10055                           intcon	equ	0xFF2
 10056                           indf0	equ	0xFEF
 10057                           postinc0	equ	0xFEE
 10058                           fsr0h	equ	0xFEA
 10059                           fsr0l	equ	0xFE9
 10060                           wreg	equ	0xFE8
 10061                           indf1	equ	0xFE7
 10062                           postdec1	equ	0xFE5
 10063                           fsr1h	equ	0xFE2
 10064                           fsr1l	equ	0xFE1
 10065                           indf2	equ	0xFDF
 10066                           postinc2	equ	0xFDE
 10067                           postdec2	equ	0xFDD
 10068                           plusw2	equ	0xFDB
 10069                           fsr2h	equ	0xFDA
 10070                           fsr2l	equ	0xFD9
 10071                           status	equ	0xFD8
 10072                           
 10073 ;; *************** function _USBCtrlEPAllowStatusStage *****************
 10074 ;; Defined at:
 10075 ;;		line 1434 in file "../../../../../../framework/usb/src/usb_device.c"
 10076 ;; Parameters:    Size  Location     Type
 10077 ;;		None
 10078 ;; Auto vars:     Size  Location     Type
 10079 ;;		None
 10080 ;; Return value:  Size  Location     Type
 10081 ;;		None               void
 10082 ;; Registers used:
 10083 ;;		wreg, fsr2l, fsr2h, status,2, status,0
 10084 ;; Tracked objects:
 10085 ;;		On entry : 0/0
 10086 ;;		On exit  : 0/0
 10087 ;;		Unchanged: 0/0
 10088 ;; Data sizes:     COMRAM   BANK0   BANK1   BANK2   BANK3   BANK4   BANK5   BANK6   BANK7
 10089 ;;      Params:         0       0       0       0       0       0       0       0       0
 10090 ;;      Locals:         0       0       0       0       0       0       0       0       0
 10091 ;;      Temps:          0       0       0       0       0       0       0       0       0
 10092 ;;      Totals:         0       0       0       0       0       0       0       0       0
 10093 ;;Total ram usage:        0 bytes
 10094 ;; Hardware stack levels used:    1
 10095 ;; This function calls:
 10096 ;;		Nothing
 10097 ;; This function is called by:
 10098 ;;		_USBDeviceTasks
 10099 ;;		_USBCtrlEPServiceComplete
 10100 ;;		_USBCtrlTrfRxService
 10101 ;; This function uses a non-reentrant model
 10102 ;;
 10103                           
 10104                           	psect	text55
 10105  000E9E                     __ptext55:
 10106                           	opt stack 0
 10107  000E9E                     _USBCtrlEPAllowStatusStage:
 10108                           	opt stack 22
 10109                           
 10110                           ;usb_device.c: 1441: if(USBStatusStageEnabledFlag1 == 0)
 10111                           
 10112                           ;incstack = 0
 10113  000E9E  5052               	movf	_USBStatusStageEnabledFlag1,w,c	;volatile
 10114  000EA0  A4D8               	btfss	status,2,c
 10115  000EA2  0012               	return	
 10116                           
 10117                           ;usb_device.c: 1442: {
 10118                           ;usb_device.c: 1443: USBStatusStageEnabledFlag1 = 1;
 10119  000EA4  0E01               	movlw	1
 10120  000EA6  6E52               	movwf	_USBStatusStageEnabledFlag1,c	;volatile
 10121                           
 10122                           ;usb_device.c: 1444: if(USBStatusStageEnabledFlag2 == 0)
 10123  000EA8  5053               	movf	_USBStatusStageEnabledFlag2,w,c	;volatile
 10124  000EAA  A4D8               	btfss	status,2,c
 10125  000EAC  0012               	return	
 10126                           
 10127                           ;usb_device.c: 1445: {
 10128                           ;usb_device.c: 1446: USBStatusStageEnabledFlag2 = 1;
 10129  000EAE  0E01               	movlw	1
 10130  000EB0  6E53               	movwf	_USBStatusStageEnabledFlag2,c	;volatile
 10131                           
 10132                           ;usb_device.c: 1450: if(controlTransferState == 2)
 10133  000EB2  0E02               	movlw	2
 10134  000EB4  1856               	xorwf	_controlTransferState,w,c	;volatile
 10135  000EB6  A4D8               	btfss	status,2,c
 10136  000EB8  D016               	goto	i2l4011
 10137                           
 10138                           ;usb_device.c: 1451: {
 10139                           ;usb_device.c: 1452: pBDTEntryIn[0]->CNT = 0;
 10140  000EBA  0100               	movlb	0	; () banked
 10141  000EBC  EE20 F001          	lfsr	2,1
 10142  000EC0  5178               	movf	_pBDTEntryIn& (0+255),w,b
 10143  000EC2  26D9               	addwf	fsr2l,f,c
 10144  000EC4  5179               	movf	(_pBDTEntryIn+1)& (0+255),w,b
 10145  000EC6  22DA               	addwfc	fsr2h,f,c
 10146  000EC8  0E00               	movlw	0
 10147  000ECA  6EDF               	movwf	indf2,c
 10148                           
 10149                           ; BSR set to: 0
 10150                           ;usb_device.c: 1453: pBDTEntryIn[0]->STAT.Val = 0x40|(0x08 & 0x08);
 10151  000ECC  C078  FFD9         	movff	_pBDTEntryIn,fsr2l
 10152  000ED0  C079  FFDA         	movff	_pBDTEntryIn+1,fsr2h
 10153  000ED4  0E48               	movlw	72
 10154  000ED6  6EDF               	movwf	indf2,c
 10155                           
 10156                           ; BSR set to: 0
 10157                           ;usb_device.c: 1454: pBDTEntryIn[0]->STAT.Val |= 0x80;
 10158  000ED8  C078  FFD9         	movff	_pBDTEntryIn,fsr2l
 10159  000EDC  C079  FFDA         	movff	_pBDTEntryIn+1,fsr2h
 10160  000EE0  0E00               	movlw	0
 10161  000EE2  8EDB               	bsf	plusw2,7,c
 10162                           
 10163                           ;usb_device.c: 1455: }
 10164  000EE4  0012               	return	
 10165  000EE6                     i2l4011:
 10166                           
 10167                           ;usb_device.c: 1456: else if(controlTransferState == 1)
 10168  000EE6  0456               	decf	_controlTransferState,w,c	;volatile
 10169  000EE8  A4D8               	btfss	status,2,c
 10170  000EEA  0012               	return	
 10171                           
 10172                           ;usb_device.c: 1457: {
 10173                           ;usb_device.c: 1458: BothEP0OutUOWNsSet = 0;
 10174  000EEC  0E00               	movlw	0
 10175  000EEE  6E4B               	movwf	_BothEP0OutUOWNsSet,c	;volatile
 10176                           
 10177                           ;usb_device.c: 1463: pBDTEntryEP0OutCurrent->CNT = 8;
 10178  000EF0  EE20 F001          	lfsr	2,1
 10179  000EF4  5045               	movf	_pBDTEntryEP0OutCurrent,w,c
 10180  000EF6  26D9               	addwf	fsr2l,f,c
 10181  000EF8  5046               	movf	_pBDTEntryEP0OutCurrent+1,w,c
 10182  000EFA  22DA               	addwfc	fsr2h,f,c
 10183  000EFC  0E08               	movlw	8
 10184  000EFE  6EDF               	movwf	indf2,c
 10185                           
 10186                           ;usb_device.c: 1464: pBDTEntryEP0OutCurrent->ADR = ((uint16_t)(&SetupPkt));
 10187  000F00  EE20 F002          	lfsr	2,2
 10188  000F04  5045               	movf	_pBDTEntryEP0OutCurrent,w,c
 10189  000F06  26D9               	addwf	fsr2l,f,c
 10190  000F08  5046               	movf	_pBDTEntryEP0OutCurrent+1,w,c
 10191  000F0A  22DA               	addwfc	fsr2h,f,c
 10192  000F0C  0E20               	movlw	32
 10193  000F0E  6EDE               	movwf	postinc2,c
 10194  000F10  0E04               	movlw	4
 10195  000F12  6EDD               	movwf	postdec2,c
 10196                           
 10197                           ;usb_device.c: 1465: pBDTEntryEP0OutCurrent->STAT.Val = 0x04;
 10198  000F14  C045  FFD9         	movff	_pBDTEntryEP0OutCurrent,fsr2l
 10199  000F18  C046  FFDA         	movff	_pBDTEntryEP0OutCurrent+1,fsr2h
 10200  000F1C  0E04               	movlw	4
 10201  000F1E  6EDF               	movwf	indf2,c
 10202                           
 10203                           ;usb_device.c: 1466: pBDTEntryEP0OutCurrent->STAT.Val |= 0x80;
 10204  000F20  C045  FFD9         	movff	_pBDTEntryEP0OutCurrent,fsr2l
 10205  000F24  C046  FFDA         	movff	_pBDTEntryEP0OutCurrent+1,fsr2h
 10206  000F28  0E00               	movlw	0
 10207  000F2A  8EDB               	bsf	plusw2,7,c
 10208                           
 10209                           ;usb_device.c: 1467: BothEP0OutUOWNsSet = 1;
 10210  000F2C  0E01               	movlw	1
 10211  000F2E  6E4B               	movwf	_BothEP0OutUOWNsSet,c	;volatile
 10212                           
 10213                           ;usb_device.c: 1471: pBDTEntryEP0OutNext->CNT = 8;
 10214  000F30  EE20 F001          	lfsr	2,1
 10215  000F34  5047               	movf	_pBDTEntryEP0OutNext,w,c
 10216  000F36  26D9               	addwf	fsr2l,f,c
 10217  000F38  5048               	movf	_pBDTEntryEP0OutNext+1,w,c
 10218  000F3A  22DA               	addwfc	fsr2h,f,c
 10219  000F3C  0E08               	movlw	8
 10220  000F3E  6EDF               	movwf	indf2,c
 10221                           
 10222                           ;usb_device.c: 1472: pBDTEntryEP0OutNext->ADR = ((uint16_t)(&SetupPkt));
 10223  000F40  EE20 F002          	lfsr	2,2
 10224  000F44  5047               	movf	_pBDTEntryEP0OutNext,w,c
 10225  000F46  26D9               	addwf	fsr2l,f,c
 10226  000F48  5048               	movf	_pBDTEntryEP0OutNext+1,w,c
 10227  000F4A  22DA               	addwfc	fsr2h,f,c
 10228  000F4C  0E20               	movlw	32
 10229  000F4E  6EDE               	movwf	postinc2,c
 10230  000F50  0E04               	movlw	4
 10231  000F52  6EDD               	movwf	postdec2,c
 10232                           
 10233                           ;usb_device.c: 1473: pBDTEntryEP0OutNext->STAT.Val = 0x80;
 10234  000F54  C047  FFD9         	movff	_pBDTEntryEP0OutNext,fsr2l
 10235  000F58  C048  FFDA         	movff	_pBDTEntryEP0OutNext+1,fsr2h
 10236  000F5C  0E80               	movlw	128
 10237  000F5E  6EDF               	movwf	indf2,c
 10238  000F60  0012               	return	
 10239  000F62                     __end_of_USBCtrlEPAllowStatusStage:
 10240                           	opt stack 0
 10241                           pclatu	equ	0xFFB
 10242                           pclath	equ	0xFFA
 10243                           tblptru	equ	0xFF8
 10244                           tblptrh	equ	0xFF7
 10245                           tblptrl	equ	0xFF6
 10246                           tablat	equ	0xFF5
 10247                           prodh	equ	0xFF4
 10248                           prodl	equ	0xFF3
 10249                           intcon	equ	0xFF2
 10250                           indf0	equ	0xFEF
 10251                           postinc0	equ	0xFEE
 10252                           fsr0h	equ	0xFEA
 10253                           fsr0l	equ	0xFE9
 10254                           wreg	equ	0xFE8
 10255                           indf1	equ	0xFE7
 10256                           postdec1	equ	0xFE5
 10257                           fsr1h	equ	0xFE2
 10258                           fsr1l	equ	0xFE1
 10259                           indf2	equ	0xFDF
 10260                           postinc2	equ	0xFDE
 10261                           postdec2	equ	0xFDD
 10262                           plusw2	equ	0xFDB
 10263                           fsr2h	equ	0xFDA
 10264                           fsr2l	equ	0xFD9
 10265                           status	equ	0xFD8
 10266                           
 10267 ;; *************** function _USBCtrlTrfInHandler *****************
 10268 ;; Defined at:
 10269 ;;		line 2609 in file "../../../../../../framework/usb/src/usb_device.c"
 10270 ;; Parameters:    Size  Location     Type
 10271 ;;		None
 10272 ;; Auto vars:     Size  Location     Type
 10273 ;;  lastDTS         1    1[COMRAM] unsigned char 
 10274 ;; Return value:  Size  Location     Type
 10275 ;;		None               void
 10276 ;; Registers used:
 10277 ;;		wreg, fsr0l, fsr0h, fsr2l, fsr2h, status,2, status,0, tblptrl, tblptrh, tblptru, cstack
 10278 ;; Tracked objects:
 10279 ;;		On entry : 0/0
 10280 ;;		On exit  : 0/0
 10281 ;;		Unchanged: 0/0
 10282 ;; Data sizes:     COMRAM   BANK0   BANK1   BANK2   BANK3   BANK4   BANK5   BANK6   BANK7
 10283 ;;      Params:         0       0       0       0       0       0       0       0       0
 10284 ;;      Locals:         1       0       0       0       0       0       0       0       0
 10285 ;;      Temps:          0       0       0       0       0       0       0       0       0
 10286 ;;      Totals:         1       0       0       0       0       0       0       0       0
 10287 ;;Total ram usage:        1 bytes
 10288 ;; Hardware stack levels used:    1
 10289 ;; Hardware stack levels required when called:    1
 10290 ;; This function calls:
 10291 ;;		_USBCtrlTrfTxService
 10292 ;; This function is called by:
 10293 ;;		_USBCtrlEPService
 10294 ;; This function uses a non-reentrant model
 10295 ;;
 10296                           
 10297                           	psect	text56
 10298  000F62                     __ptext56:
 10299                           	opt stack 0
 10300  000F62                     _USBCtrlTrfInHandler:
 10301                           	opt stack 23
 10302                           
 10303                           ;usb_device.c: 2611: uint8_t lastDTS;
 10304                           ;usb_device.c: 2613: lastDTS = pBDTEntryIn[0]->STAT.DTS;
 10305                           
 10306                           ;incstack = 0
 10307  000F62  C078  FFD9         	movff	_pBDTEntryIn,fsr2l
 10308  000F66  C079  FFDA         	movff	_pBDTEntryIn+1,fsr2h
 10309  000F6A  0E00               	movlw	0
 10310  000F6C  BCDF               	btfsc	indf2,6,c
 10311  000F6E  0E01               	movlw	1
 10312  000F70  6E02               	movwf	USBCtrlTrfInHandler@lastDTS,c
 10313                           
 10314                           ;usb_device.c: 2616: ((uint8_t_VAL*)&pBDTEntryIn[0])->Val ^= 0x0004;
 10315  000F72  0E04               	movlw	4
 10316  000F74  0100               	movlb	0	; () banked
 10317  000F76  1B78               	xorwf	_pBDTEntryIn& (0+255),f,b
 10318                           
 10319                           ; BSR set to: 0
 10320                           ;usb_device.c: 2621: if(USBDeviceState == ADR_PENDING_STATE)
 10321  000F78  0E08               	movlw	8
 10322  000F7A  1851               	xorwf	_USBDeviceState,w,c	;volatile
 10323  000F7C  A4D8               	btfss	status,2,c
 10324  000F7E  D00B               	goto	i2l4449
 10325                           
 10326                           ; BSR set to: 0
 10327                           ;usb_device.c: 2622: {
 10328                           ;usb_device.c: 2623: UADDR = (SetupPkt.bDevADR & 0x7F);
 10329  000F80  0104               	movlb	4	; () banked
 10330  000F82  5122               	movf	34,w,b	;volatile
 10331  000F84  0B7F               	andlw	127
 10332  000F86  6E6E               	movwf	3950,c	;volatile
 10333                           
 10334                           ; BSR set to: 4
 10335                           ;usb_device.c: 2624: if(UADDR != 0u)
 10336  000F88  506E               	movf	3950,w,c	;volatile
 10337  000F8A  B4D8               	btfsc	status,2,c
 10338  000F8C  D002               	goto	i2l4447
 10339                           
 10340                           ; BSR set to: 4
 10341                           ;usb_device.c: 2625: {
 10342                           ;usb_device.c: 2626: USBDeviceState=ADDRESS_STATE;
 10343  000F8E  0E10               	movlw	16
 10344  000F90  D001               	goto	L13
 10345  000F92                     i2l4447:
 10346                           
 10347                           ; BSR set to: 4
 10348                           ;usb_device.c: 2628: else
 10349                           ;usb_device.c: 2629: {
 10350                           ;usb_device.c: 2630: USBDeviceState=DEFAULT_STATE;
 10351  000F92  0E04               	movlw	4
 10352  000F94                     L13:
 10353  000F94  6E51               	movwf	_USBDeviceState,c	;volatile
 10354  000F96                     i2l4449:
 10355                           
 10356                           ;usb_device.c: 2631: }
 10357                           ;usb_device.c: 2632: }
 10358                           ;usb_device.c: 2635: if(controlTransferState == 1)
 10359  000F96  0456               	decf	_controlTransferState,w,c	;volatile
 10360  000F98  A4D8               	btfss	status,2,c
 10361  000F9A  D03B               	goto	i2l961
 10362                           
 10363                           ;usb_device.c: 2636: {
 10364                           ;usb_device.c: 2637: pBDTEntryIn[0]->ADR = ((uint16_t)(CtrlTrfData));
 10365  000F9C  0100               	movlb	0	; () banked
 10366  000F9E  EE20 F002          	lfsr	2,2
 10367  000FA2  5178               	movf	_pBDTEntryIn& (0+255),w,b
 10368  000FA4  26D9               	addwf	fsr2l,f,c
 10369  000FA6  5179               	movf	(_pBDTEntryIn+1)& (0+255),w,b
 10370  000FA8  22DA               	addwfc	fsr2h,f,c
 10371  000FAA  0E28               	movlw	40
 10372  000FAC  6EDE               	movwf	postinc2,c
 10373  000FAE  0E04               	movlw	4
 10374  000FB0  6EDD               	movwf	postdec2,c
 10375                           
 10376                           ; BSR set to: 0
 10377                           ;usb_device.c: 2638: USBCtrlTrfTxService();
 10378  000FB2  ECE5  F006         	call	_USBCtrlTrfTxService	;wreg free
 10379                           
 10380                           ;usb_device.c: 2644: if(shortPacketStatus == 2)
 10381  000FB6  0E02               	movlw	2
 10382  000FB8  1858               	xorwf	_shortPacketStatus,w,c	;volatile
 10383  000FBA  A4D8               	btfss	status,2,c
 10384  000FBC  D00D               	goto	i2l4461
 10385                           
 10386                           ;usb_device.c: 2645: {
 10387                           ;usb_device.c: 2648: pBDTEntryIn[0]->STAT.Val = 0x04;
 10388  000FBE  C078  FFD9         	movff	_pBDTEntryIn,fsr2l
 10389  000FC2  C079  FFDA         	movff	_pBDTEntryIn+1,fsr2h
 10390  000FC6  0E04               	movlw	4
 10391  000FC8  6EDF               	movwf	indf2,c
 10392                           
 10393                           ;usb_device.c: 2649: pBDTEntryIn[0]->STAT.Val |= 0x80;
 10394  000FCA  C078  FFD9         	movff	_pBDTEntryIn,fsr2l
 10395  000FCE  C079  FFDA         	movff	_pBDTEntryIn+1,fsr2h
 10396  000FD2  0E00               	movlw	0
 10397  000FD4  8EDB               	bsf	plusw2,7,c
 10398                           
 10399                           ;usb_device.c: 2650: }
 10400  000FD6  0012               	return	
 10401  000FD8                     i2l4461:
 10402                           
 10403                           ;usb_device.c: 2651: else
 10404                           ;usb_device.c: 2652: {
 10405                           ;usb_device.c: 2653: if(lastDTS == 0)
 10406  000FD8  5002               	movf	USBCtrlTrfInHandler@lastDTS,w,c
 10407  000FDA  A4D8               	btfss	status,2,c
 10408  000FDC  D00D               	goto	i2l4467
 10409                           
 10410                           ;usb_device.c: 2654: {
 10411                           ;usb_device.c: 2655: pBDTEntryIn[0]->STAT.Val = 0x40|(0x08 & 0x08);
 10412  000FDE  C078  FFD9         	movff	_pBDTEntryIn,fsr2l
 10413  000FE2  C079  FFDA         	movff	_pBDTEntryIn+1,fsr2h
 10414  000FE6  0E48               	movlw	72
 10415  000FE8  6EDF               	movwf	indf2,c
 10416                           
 10417                           ;usb_device.c: 2656: pBDTEntryIn[0]->STAT.Val |= 0x80;
 10418  000FEA  C078  FFD9         	movff	_pBDTEntryIn,fsr2l
 10419  000FEE  C079  FFDA         	movff	_pBDTEntryIn+1,fsr2h
 10420  000FF2  0E00               	movlw	0
 10421  000FF4  8EDB               	bsf	plusw2,7,c
 10422                           
 10423                           ;usb_device.c: 2657: }
 10424  000FF6  0012               	return	
 10425  000FF8                     i2l4467:
 10426                           
 10427                           ;usb_device.c: 2658: else
 10428                           ;usb_device.c: 2659: {
 10429                           ;usb_device.c: 2660: pBDTEntryIn[0]->STAT.Val = 0x00|(0x08 & 0x08);
 10430  000FF8  C078  FFD9         	movff	_pBDTEntryIn,fsr2l
 10431  000FFC  C079  FFDA         	movff	_pBDTEntryIn+1,fsr2h
 10432  001000  0E08               	movlw	8
 10433  001002  6EDF               	movwf	indf2,c
 10434                           
 10435                           ;usb_device.c: 2661: pBDTEntryIn[0]->STAT.Val |= 0x80;
 10436  001004  C078  FFD9         	movff	_pBDTEntryIn,fsr2l
 10437  001008  C079  FFDA         	movff	_pBDTEntryIn+1,fsr2h
 10438  00100C  0E00               	movlw	0
 10439  00100E  8EDB               	bsf	plusw2,7,c
 10440                           
 10441                           ;usb_device.c: 2662: }
 10442                           ;usb_device.c: 2663: }
 10443                           ;usb_device.c: 2664: }
 10444  001010  0012               	return	
 10445  001012                     i2l961:
 10446                           
 10447                           ;usb_device.c: 2665: else
 10448                           ;usb_device.c: 2666: {
 10449                           ;usb_device.c: 2670: if(outPipes[0].info.bits.busy == 1)
 10450  001012  0100               	movlb	0	; () banked
 10451  001014  AF6D               	btfss	(_outPipes+3)& (0+255),7,b	;volatile
 10452  001016  D002               	goto	i2l4473
 10453                           
 10454                           ; BSR set to: 0
 10455                           ;usb_device.c: 2675: }
 10456                           ;usb_device.c: 2676: outPipes[0].info.bits.busy = 0;
 10457                           
 10458                           ; BSR set to: 0
 10459                           ;usb_device.c: 2673: {
 10460                           ;usb_device.c: 2674: outPipes[0].pFunc();
 10461  001018  0100               	movlb	0	; () banked
 10462  00101A  9F6D               	bcf	(_outPipes+3)& (0+255),7,b	;volatile
 10463  00101C                     i2l4473:
 10464                           
 10465                           ; BSR set to: 0
 10466                           ;usb_device.c: 2677: }
 10467                           ;usb_device.c: 2679: controlTransferState = 0;
 10468  00101C  0E00               	movlw	0
 10469  00101E  6E56               	movwf	_controlTransferState,c	;volatile
 10470  001020  0012               	return	
 10471  001022                     __end_of_USBCtrlTrfInHandler:
 10472                           	opt stack 0
 10473                           pclatu	equ	0xFFB
 10474                           pclath	equ	0xFFA
 10475                           tblptru	equ	0xFF8
 10476                           tblptrh	equ	0xFF7
 10477                           tblptrl	equ	0xFF6
 10478                           tablat	equ	0xFF5
 10479                           prodh	equ	0xFF4
 10480                           prodl	equ	0xFF3
 10481                           intcon	equ	0xFF2
 10482                           indf0	equ	0xFEF
 10483                           postinc0	equ	0xFEE
 10484                           fsr0h	equ	0xFEA
 10485                           fsr0l	equ	0xFE9
 10486                           wreg	equ	0xFE8
 10487                           indf1	equ	0xFE7
 10488                           postdec1	equ	0xFE5
 10489                           fsr1h	equ	0xFE2
 10490                           fsr1l	equ	0xFE1
 10491                           indf2	equ	0xFDF
 10492                           postinc2	equ	0xFDE
 10493                           postdec2	equ	0xFDD
 10494                           plusw2	equ	0xFDB
 10495                           fsr2h	equ	0xFDA
 10496                           fsr2l	equ	0xFD9
 10497                           status	equ	0xFD8
 10498                           
 10499 ;; *************** function _USBCtrlTrfTxService *****************
 10500 ;; Defined at:
 10501 ;;		line 1789 in file "../../../../../../framework/usb/src/usb_device.c"
 10502 ;; Parameters:    Size  Location     Type
 10503 ;;		None
 10504 ;; Auto vars:     Size  Location     Type
 10505 ;;  byteToSend      1    0[COMRAM] unsigned char 
 10506 ;; Return value:  Size  Location     Type
 10507 ;;		None               void
 10508 ;; Registers used:
 10509 ;;		wreg, fsr0l, fsr0h, fsr2l, fsr2h, status,2, status,0, tblptrl, tblptrh, tblptru
 10510 ;; Tracked objects:
 10511 ;;		On entry : 0/0
 10512 ;;		On exit  : 0/0
 10513 ;;		Unchanged: 0/0
 10514 ;; Data sizes:     COMRAM   BANK0   BANK1   BANK2   BANK3   BANK4   BANK5   BANK6   BANK7
 10515 ;;      Params:         0       0       0       0       0       0       0       0       0
 10516 ;;      Locals:         1       0       0       0       0       0       0       0       0
 10517 ;;      Temps:          0       0       0       0       0       0       0       0       0
 10518 ;;      Totals:         1       0       0       0       0       0       0       0       0
 10519 ;;Total ram usage:        1 bytes
 10520 ;; Hardware stack levels used:    1
 10521 ;; This function calls:
 10522 ;;		Nothing
 10523 ;; This function is called by:
 10524 ;;		_USBCtrlEPAllowDataStage
 10525 ;;		_USBCtrlTrfInHandler
 10526 ;; This function uses a non-reentrant model
 10527 ;;
 10528                           
 10529                           	psect	text57
 10530  000DCA                     __ptext57:
 10531                           	opt stack 0
 10532  000DCA                     _USBCtrlTrfTxService:
 10533                           	opt stack 21
 10534                           
 10535                           ;usb_device.c: 1791: uint8_t byteToSend;
 10536                           ;usb_device.c: 1795: byteToSend = 8;
 10537                           
 10538                           ;incstack = 0
 10539  000DCA  0E08               	movlw	8
 10540  000DCC  6E01               	movwf	USBCtrlTrfTxService@byteToSend,c
 10541                           
 10542                           ;usb_device.c: 1796: if(inPipes[0].wCount.Val < (uint8_t)8)
 10543  000DCE  0100               	movlb	0	; () banked
 10544  000DD0  5177               	movf	(_inPipes+5)& (0+255),w,b	;volatile
 10545  000DD2  E111               	bnz	i2l3959
 10546  000DD4  0E08               	movlw	8
 10547  000DD6  0100               	movlb	0	; () banked
 10548  000DD8  5D76               	subwf	(_inPipes+4)& (0+255),w,b	;volatile
 10549  000DDA  B0D8               	btfsc	status,0,c
 10550  000DDC  D00C               	goto	i2l3959
 10551                           
 10552                           ; BSR set to: 0
 10553                           ;usb_device.c: 1797: {
 10554                           ;usb_device.c: 1798: byteToSend = inPipes[0].wCount.Val;
 10555  000DDE  C076  F001         	movff	_inPipes+4,USBCtrlTrfTxService@byteToSend	;volatile
 10556                           
 10557                           ; BSR set to: 0
 10558                           ;usb_device.c: 1805: if(shortPacketStatus == 0)
 10559  000DE2  5058               	movf	_shortPacketStatus,w,c	;volatile
 10560  000DE4  A4D8               	btfss	status,2,c
 10561  000DE6  D002               	goto	i2l3955
 10562                           
 10563                           ; BSR set to: 0
 10564                           ;usb_device.c: 1806: {
 10565                           ;usb_device.c: 1807: shortPacketStatus = 1;
 10566  000DE8  0E01               	movlw	1
 10567  000DEA  D004               	goto	L14
 10568  000DEC                     i2l3955:
 10569                           
 10570                           ; BSR set to: 0
 10571                           ;usb_device.c: 1809: else if(shortPacketStatus == 1)
 10572  000DEC  0458               	decf	_shortPacketStatus,w,c	;volatile
 10573  000DEE  A4D8               	btfss	status,2,c
 10574  000DF0  D002               	goto	i2l3959
 10575                           
 10576                           ; BSR set to: 0
 10577                           ;usb_device.c: 1810: {
 10578                           ;usb_device.c: 1811: shortPacketStatus = 2;
 10579  000DF2  0E02               	movlw	2
 10580  000DF4                     L14:
 10581  000DF4  6E58               	movwf	_shortPacketStatus,c	;volatile
 10582  000DF6                     i2l3959:
 10583                           
 10584                           ; BSR set to: 0
 10585                           ;usb_device.c: 1812: }
 10586                           ;usb_device.c: 1813: }
 10587                           ;usb_device.c: 1817: inPipes[0].wCount.Val -= byteToSend;
 10588  000DF6  5001               	movf	USBCtrlTrfTxService@byteToSend,w,c
 10589  000DF8  0100               	movlb	0	; () banked
 10590  000DFA  5F76               	subwf	(_inPipes+4)& (0+255),f,b	;volatile
 10591  000DFC  0E00               	movlw	0
 10592  000DFE  5B77               	subwfb	(_inPipes+5)& (0+255),f,b	;volatile
 10593                           
 10594                           ; BSR set to: 0
 10595                           ;usb_device.c: 1822: pBDTEntryIn[0]->CNT = byteToSend;
 10596  000E00  0100               	movlb	0	; () banked
 10597  000E02  EE20 F001          	lfsr	2,1
 10598  000E06  5178               	movf	_pBDTEntryIn& (0+255),w,b
 10599  000E08  26D9               	addwf	fsr2l,f,c
 10600  000E0A  5179               	movf	(_pBDTEntryIn+1)& (0+255),w,b
 10601  000E0C  22DA               	addwfc	fsr2h,f,c
 10602  000E0E  C001  FFDF         	movff	USBCtrlTrfTxService@byteToSend,indf2
 10603                           
 10604                           ; BSR set to: 0
 10605                           ;usb_device.c: 1826: pDst = (volatile uint8_t*)CtrlTrfData;
 10606  000E12  0E28               	movlw	40
 10607  000E14  6E49               	movwf	_pDst,c
 10608  000E16  0E04               	movlw	4
 10609  000E18  6E4A               	movwf	_pDst+1,c
 10610                           
 10611                           ; BSR set to: 0
 10612                           ;usb_device.c: 1827: if(inPipes[0].info.bits.ctrl_trf_mem == 0x00)
 10613  000E1A  0100               	movlb	0	; () banked
 10614  000E1C  A175               	btfss	(_inPipes+3)& (0+255),0,b	;volatile
 10615  000E1E  D01C               	goto	i2l3977
 10616  000E20  D03A               	goto	i2l3987
 10617  000E22                     i2l3969:
 10618                           
 10619                           ; BSR set to: 0
 10620                           ;usb_device.c: 1830: {
 10621                           ;usb_device.c: 1831: *pDst++ = *inPipes[0].pSrc.bRom++;
 10622  000E22  C072  FFF6         	movff	_inPipes,tblptrl	;volatile
 10623  000E26  C073  FFF7         	movff	_inPipes+1,tblptrh	;volatile
 10624  000E2A  6AF8               	clrf	tblptru,c
 10625  000E2C  C049  FFD9         	movff	_pDst,fsr2l
 10626  000E30  C04A  FFDA         	movff	_pDst+1,fsr2h
 10627  000E34  0E07               	movlw	(high __ramtop+-1)
 10628  000E36  64F7               	cpfsgt	tblptrh,c
 10629  000E38  D003               	bra	i2u300_47
 10630  000E3A  0008               	tblrd		*
 10631  000E3C  50F5               	movf	tablat,w,c
 10632  000E3E  D005               	bra	i2u300_40
 10633  000E40                     i2u300_47:
 10634  000E40  CFF6 FFE9          	movff	tblptrl,fsr0l
 10635  000E44  CFF7 FFEA          	movff	tblptrh,fsr0h
 10636  000E48  50EF               	movf	indf0,w,c
 10637  000E4A                     i2u300_40:
 10638  000E4A  6EDF               	movwf	indf2,c
 10639  000E4C  0100               	movlb	0	; () banked
 10640  000E4E  4B72               	infsnz	_inPipes& (0+255),f,b	;volatile
 10641  000E50  2B73               	incf	(_inPipes+1)& (0+255),f,b	;volatile
 10642                           
 10643                           ; BSR set to: 0
 10644  000E52  4A49               	infsnz	_pDst,f,c
 10645  000E54  2A4A               	incf	_pDst+1,f,c
 10646                           
 10647                           ; BSR set to: 0
 10648                           ;usb_device.c: 1832: byteToSend--;
 10649  000E56  0601               	decf	USBCtrlTrfTxService@byteToSend,f,c
 10650  000E58                     i2l3977:
 10651                           
 10652                           ; BSR set to: 0
 10653  000E58  5001               	movf	USBCtrlTrfTxService@byteToSend,w,c
 10654  000E5A  B4D8               	btfsc	status,2,c
 10655  000E5C  0012               	return	
 10656  000E5E  D7E1               	goto	i2l3969
 10657  000E60                     i2l3979:
 10658                           
 10659                           ; BSR set to: 0
 10660                           ;usb_device.c: 1838: {
 10661                           ;usb_device.c: 1839: *pDst++ = *inPipes[0].pSrc.bRam++;
 10662  000E60  C072  FFF6         	movff	_inPipes,tblptrl	;volatile
 10663  000E64  C073  FFF7         	movff	_inPipes+1,tblptrh	;volatile
 10664  000E68  6AF8               	clrf	tblptru,c
 10665  000E6A  C049  FFD9         	movff	_pDst,fsr2l
 10666  000E6E  C04A  FFDA         	movff	_pDst+1,fsr2h
 10667  000E72  0E07               	movlw	(high __ramtop+-1)
 10668  000E74  64F7               	cpfsgt	tblptrh,c
 10669  000E76  D003               	bra	i2u302_47
 10670  000E78  0008               	tblrd		*
 10671  000E7A  50F5               	movf	tablat,w,c
 10672  000E7C  D005               	bra	i2u302_40
 10673  000E7E                     i2u302_47:
 10674  000E7E  CFF6 FFE9          	movff	tblptrl,fsr0l
 10675  000E82  CFF7 FFEA          	movff	tblptrh,fsr0h
 10676  000E86  50EF               	movf	indf0,w,c
 10677  000E88                     i2u302_40:
 10678  000E88  6EDF               	movwf	indf2,c
 10679  000E8A  0100               	movlb	0	; () banked
 10680  000E8C  4B72               	infsnz	_inPipes& (0+255),f,b	;volatile
 10681  000E8E  2B73               	incf	(_inPipes+1)& (0+255),f,b	;volatile
 10682                           
 10683                           ; BSR set to: 0
 10684  000E90  4A49               	infsnz	_pDst,f,c
 10685  000E92  2A4A               	incf	_pDst+1,f,c
 10686                           
 10687                           ; BSR set to: 0
 10688                           ;usb_device.c: 1840: byteToSend--;
 10689  000E94  0601               	decf	USBCtrlTrfTxService@byteToSend,f,c
 10690  000E96                     i2l3987:
 10691                           
 10692                           ; BSR set to: 0
 10693  000E96  5001               	movf	USBCtrlTrfTxService@byteToSend,w,c
 10694  000E98  B4D8               	btfsc	status,2,c
 10695  000E9A  0012               	return	
 10696  000E9C  D7E1               	goto	i2l3979
 10697  000E9E                     __end_of_USBCtrlTrfTxService:
 10698                           	opt stack 0
 10699                           pclatu	equ	0xFFB
 10700                           pclath	equ	0xFFA
 10701                           tblptru	equ	0xFF8
 10702                           tblptrh	equ	0xFF7
 10703                           tblptrl	equ	0xFF6
 10704                           tablat	equ	0xFF5
 10705                           prodh	equ	0xFF4
 10706                           prodl	equ	0xFF3
 10707                           intcon	equ	0xFF2
 10708                           indf0	equ	0xFEF
 10709                           postinc0	equ	0xFEE
 10710                           fsr0h	equ	0xFEA
 10711                           fsr0l	equ	0xFE9
 10712                           wreg	equ	0xFE8
 10713                           indf1	equ	0xFE7
 10714                           postdec1	equ	0xFE5
 10715                           fsr1h	equ	0xFE2
 10716                           fsr1l	equ	0xFE1
 10717                           indf2	equ	0xFDF
 10718                           postinc2	equ	0xFDE
 10719                           postdec2	equ	0xFDD
 10720                           plusw2	equ	0xFDB
 10721                           fsr2h	equ	0xFDA
 10722                           fsr2l	equ	0xFD9
 10723                           status	equ	0xFD8
 10724                           pclatu	equ	0xFFB
 10725                           pclath	equ	0xFFA
 10726                           tblptru	equ	0xFF8
 10727                           tblptrh	equ	0xFF7
 10728                           tblptrl	equ	0xFF6
 10729                           tablat	equ	0xFF5
 10730                           prodh	equ	0xFF4
 10731                           prodl	equ	0xFF3
 10732                           intcon	equ	0xFF2
 10733                           indf0	equ	0xFEF
 10734                           postinc0	equ	0xFEE
 10735                           fsr0h	equ	0xFEA
 10736                           fsr0l	equ	0xFE9
 10737                           wreg	equ	0xFE8
 10738                           indf1	equ	0xFE7
 10739                           postdec1	equ	0xFE5
 10740                           fsr1h	equ	0xFE2
 10741                           fsr1l	equ	0xFE1
 10742                           indf2	equ	0xFDF
 10743                           postinc2	equ	0xFDE
 10744                           postdec2	equ	0xFDD
 10745                           plusw2	equ	0xFDB
 10746                           fsr2h	equ	0xFDA
 10747                           fsr2l	equ	0xFD9
 10748                           status	equ	0xFD8
 10749                           
 10750                           	psect	rparam
 10751  0000                     pclatu	equ	0xFFB
 10752                           pclath	equ	0xFFA
 10753                           tblptru	equ	0xFF8
 10754                           tblptrh	equ	0xFF7
 10755                           tblptrl	equ	0xFF6
 10756                           tablat	equ	0xFF5
 10757                           prodh	equ	0xFF4
 10758                           prodl	equ	0xFF3
 10759                           intcon	equ	0xFF2
 10760                           indf0	equ	0xFEF
 10761                           postinc0	equ	0xFEE
 10762                           fsr0h	equ	0xFEA
 10763                           fsr0l	equ	0xFE9
 10764                           wreg	equ	0xFE8
 10765                           indf1	equ	0xFE7
 10766                           postdec1	equ	0xFE5
 10767                           fsr1h	equ	0xFE2
 10768                           fsr1l	equ	0xFE1
 10769                           indf2	equ	0xFDF
 10770                           postinc2	equ	0xFDE
 10771                           postdec2	equ	0xFDD
 10772                           plusw2	equ	0xFDB
 10773                           fsr2h	equ	0xFDA
 10774                           fsr2l	equ	0xFD9
 10775                           status	equ	0xFD8
 10776                           
 10777                           	psect	temp
 10778  00005E                     btemp:
 10779                           	opt stack 0
 10780  00005E                     	ds	1
 10781  0000                     int$flags	set	btemp
 10782                           pclatu	equ	0xFFB
 10783                           pclath	equ	0xFFA
 10784                           tblptru	equ	0xFF8
 10785                           tblptrh	equ	0xFF7
 10786                           tblptrl	equ	0xFF6
 10787                           tablat	equ	0xFF5
 10788                           prodh	equ	0xFF4
 10789                           prodl	equ	0xFF3
 10790                           intcon	equ	0xFF2
 10791                           indf0	equ	0xFEF
 10792                           postinc0	equ	0xFEE
 10793                           fsr0h	equ	0xFEA
 10794                           fsr0l	equ	0xFE9
 10795                           wreg	equ	0xFE8
 10796                           indf1	equ	0xFE7
 10797                           postdec1	equ	0xFE5
 10798                           fsr1h	equ	0xFE2
 10799                           fsr1l	equ	0xFE1
 10800                           indf2	equ	0xFDF
 10801                           postinc2	equ	0xFDE
 10802                           postdec2	equ	0xFDD
 10803                           plusw2	equ	0xFDB
 10804                           fsr2h	equ	0xFDA
 10805                           fsr2l	equ	0xFD9
 10806                           status	equ	0xFD8


Data Sizes:
    Strings     0
    Constant    277
    Data        29
    BSS         104
    Persistent  0
    Stack       0

Auto Spaces:
    Space          Size  Autos    Used
    COMRAM           94     50      93
    BANK0           160      5      95
    BANK1           256      0       0
    BANK2           256      0       0
    BANK3           256      0       0
    BANK4           208      0       0
    BANK5           253      0       0
    BANK6           256      0       0
    BANK7           256      0       0

Pointer List with Targets:

    USER_USB_CALLBACK_EVENT_HANDLER@pdata	PTR void  size(2) Largest target is 32
		 -> USTATcopy(COMRAM[1]), USBActiveConfiguration(COMRAM[1]), BDT(BIGRAMll[32]), NULL(NULL[0]), 

    x	PTR int  size(2) Largest target is 0
		 -> NULL(NULL[0]), 

    memset@p1	PTR void  size(2) Largest target is 32
		 -> USBAlternateInterface(COMRAM[1]), BDT(BIGRAMll[32]), UEP1(SFR[1]), 

    memset@p	PTR unsigned char  size(2) Largest target is 32
		 -> USBAlternateInterface(COMRAM[1]), BDT(BIGRAMll[32]), UEP1(SFR[1]), 

    memcpy@d1	PTR void  size(2) Largest target is 8
		 -> SetupPkt(BIGRAMlh[8]), 

    memcpy@d	PTR unsigned char  size(2) Largest target is 8
		 -> SetupPkt(BIGRAMlh[8]), 

    memcpy@s1	PTR const void  size(2) Largest target is 2047
		 -> RAM(DATA[2047]), CtrlTrfData(BIGRAMlh[8]), SetupPkt(BIGRAMlh[8]), mouseReport(BIGRAMll[3]), 

    memcpy@s	PTR const unsigned char  size(2) Largest target is 2047
		 -> RAM(DATA[2047]), CtrlTrfData(BIGRAMlh[8]), SetupPkt(BIGRAMlh[8]), mouseReport(BIGRAMll[3]), 

    USBStdFeatureReqHandler@pUEP	PTR unsigned char  size(2) Largest target is 1
		 -> UEP0(SFR[1]), 

    USBStdFeatureReqHandler@p	PTR struct __BDT size(2) Largest target is 32
		 -> BDT(BIGRAMll[32]), NULL(NULL[0]), 

    sp__memcpy	PTR void  size(2) Largest target is 8
		 -> SetupPkt(BIGRAMlh[8]), 

    USBStdGetStatusHandler@p	PTR struct __BDT size(2) Largest target is 32
		 -> BDT(BIGRAMll[32]), NULL(NULL[0]), 

    pDst	PTR volatile unsigned char  size(2) Largest target is 8
		 -> CtrlTrfData(BIGRAMlh[8]), NULL(NULL[0]), 

    USBConfigureEndpoint@handle	PTR volatile struct __BDT size(2) Largest target is 32
		 -> BDT(BIGRAMll[32]), 

    pBDTEntryEP0OutCurrent	PTR volatile struct __BDT size(2) Largest target is 32
		 -> BDT(BIGRAMll[32]), NULL(NULL[0]), 

    pBDTEntryEP0OutNext	PTR volatile struct __BDT size(2) Largest target is 32
		 -> BDT(BIGRAMll[32]), NULL(NULL[0]), 

    USBTransferOnePacket@data	PTR unsigned char  size(2) Largest target is 3
		 -> mouseReport(BIGRAMll[3]), 

    USBTransferOnePacket@handle	PTR volatile struct __BDT size(2) Largest target is 32
		 -> BDT(BIGRAMll[32]), NULL(NULL[0]), 

    USBEnableEndpoint@p	PTR unsigned char  size(2) Largest target is 1
		 -> UEP0(SFR[1]), 

    pBDTEntryOut	PTR volatile struct __BDT[2] size(2) Largest target is 32
		 -> BDT(BIGRAMll[32]), NULL(NULL[0]), 

    pBDTEntryIn	PTR volatile struct __BDT[2] size(2) Largest target is 32
		 -> BDT(BIGRAMll[32]), NULL(NULL[0]), 

    S1784$pFunc	PTR FTN()void  size(2) Largest target is 0

    outPipes.pFunc	PTR FTN()void  size(2) Largest target is 0

    S1774$wRam	PTR unsigned int  size(2) Largest target is 0

    outPipes.pDst.wRam	PTR unsigned int  size(2) Largest target is 0

    S1774$bRam	PTR unsigned char  size(2) Largest target is 0

    outPipes.pDst.bRam	PTR unsigned char  size(2) Largest target is 0

    S1750$wRom	PTR const unsigned int  size(2) Largest target is 0

    inPipes.pSrc.wRom	PTR const unsigned int  size(2) Largest target is 0

    S1750$wRam	PTR unsigned int  size(2) Largest target is 0

    inPipes.pSrc.wRam	PTR unsigned int  size(2) Largest target is 0

    S1750$bRom	PTR const unsigned char  size(2) Largest target is 0

    inPipes.pSrc.bRom	PTR const unsigned char  size(2) Largest target is 0

    S1750$bRam	PTR unsigned char  size(2) Largest target is 0

    inPipes.pSrc.bRam	PTR unsigned char  size(2) Largest target is 0

    sp__memset	PTR void  size(2) Largest target is 32
		 -> USBAlternateInterface(COMRAM[1]), BDT(BIGRAMll[32]), UEP1(SFR[1]), 

    USB_SD_Ptr	const PTR const unsigned char [3] size(2) Largest target is 52
		 -> sd002(CODE[46]), sd001(CODE[52]), sd000(CODE[4]), 

    USB_CD_Ptr	const PTR const unsigned char [1] size(2) Largest target is 34
		 -> configDescriptor1(CODE[34]), 

    sp__USBTransferOnePacket	PTR void  size(2) Largest target is 32
		 -> BDT(BIGRAMll[32]), NULL(NULL[0]), 

    S706$handle	PTR void  size(2) Largest target is 32
		 -> BDT(BIGRAMll[32]), NULL(NULL[0]), 

    mouse.inputReport.handle	PTR void  size(2) Largest target is 32
		 -> BDT(BIGRAMll[32]), NULL(NULL[0]), 


Critical Paths under _main in COMRAM

    _USBDeviceInit->_memset
    _SYSTEM_Initialize->_BUTTON_Enable
    _SYSTEM_Initialize->_LED_Enable
    _MPU6050_Init->_WriteI2C
    _WriteI2C->_IdleI2C
    _LCDinit->_LCDcmd
    _LCDcmd->_LCDnibble
    _APP_DeviceMouseTasks->_BUTTON_IsPressed

Critical Paths under _SYS_InterruptHigh in COMRAM

    _SYS_InterruptHigh->_USBDeviceTasks
    _USBDeviceTasks->_USBCtrlEPService
    i2_USBDeviceInit->i2_memset
    _USBWakeFromSuspend->_USER_USB_CALLBACK_EVENT_HANDLER
    _USBSuspend->_USER_USB_CALLBACK_EVENT_HANDLER
    _USBCtrlEPAllowDataStage->_USBCtrlTrfTxService
    _USBCheckStdRequest->_USBStdFeatureReqHandler
    _USBStdSetCfgHandler->_USER_USB_CALLBACK_EVENT_HANDLER
    _USBStdFeatureReqHandler->_USER_USB_CALLBACK_EVENT_HANDLER
    i2_SYSTEM_Initialize->i2_BUTTON_Enable
    i2_SYSTEM_Initialize->i2_LED_Enable
    _USBCheckHIDRequest->_APP_DeviceMouseIdleRateCallback
    _APP_LEDUpdateUSBStatus->_LED_Off
    _APP_LEDUpdateUSBStatus->_LED_On
    _APP_DeviceMouseSOFHandler->_MPU6050_ReadAccX
    _APP_DeviceMouseSOFHandler->_MPU6050_ReadAccY
    _MPU6050_ReadAccY->i2_WriteI2C
    _MPU6050_ReadAccX->i2_WriteI2C
    i2_WriteI2C->i2_IdleI2C
    _APP_DeviceMouseInitialize->_USBEnableEndpoint
    _USBEnableEndpoint->_USBConfigureEndpoint
    _USBCtrlTrfOutHandler->_USBCtrlTrfRxService
    _USBCtrlTrfInHandler->_USBCtrlTrfTxService

Critical Paths under _main in BANK0

    _main->_USBDeviceInit
    _USBDeviceInit->_memset

Critical Paths under _SYS_InterruptHigh in BANK0

    None.

Critical Paths under _main in BANK1

    None.

Critical Paths under _SYS_InterruptHigh in BANK1

    None.

Critical Paths under _main in BANK2

    None.

Critical Paths under _SYS_InterruptHigh in BANK2

    None.

Critical Paths under _main in BANK3

    None.

Critical Paths under _SYS_InterruptHigh in BANK3

    None.

Critical Paths under _main in BANK4

    None.

Critical Paths under _SYS_InterruptHigh in BANK4

    None.

Critical Paths under _main in BANK5

    None.

Critical Paths under _SYS_InterruptHigh in BANK5

    None.

Critical Paths under _main in BANK6

    None.

Critical Paths under _SYS_InterruptHigh in BANK6

    None.

Critical Paths under _main in BANK7

    None.

Critical Paths under _SYS_InterruptHigh in BANK7

    None.

Call Graph Tables:

 ---------------------------------------------------------------------------------
 (Depth) Function   	        Calls       Base Space   Used Autos Params    Refs
 ---------------------------------------------------------------------------------
 (0) _main                                                 2     2      0    1597
                                              3 BANK0      2     2      0
               _APP_DeviceMouseTasks
                             _LCDcmd
                            _LCDinit
                       _MPU6050_Init
                            _OpenI2C
                  _SYSTEM_Initialize
                    _USBDeviceAttach
                      _USBDeviceInit
 ---------------------------------------------------------------------------------
 (1) _USBDeviceInit                                        1     1      0    1132
                                              2 BANK0      1     1      0
                             _memset
 ---------------------------------------------------------------------------------
 (2) _memset                                               8     2      6     930
                                             44 COMRAM     6     0      6
                                              0 BANK0      2     2      0
 ---------------------------------------------------------------------------------
 (1) _USBDeviceAttach                                      0     0      0       0
 ---------------------------------------------------------------------------------
 (1) _SYSTEM_Initialize                                    1     1      0      66
                                             45 COMRAM     1     1      0
                      _BUTTON_Enable
                         _LED_Enable
 ---------------------------------------------------------------------------------
 (2) _LED_Enable                                           1     1      0      22
                                             44 COMRAM     1     1      0
 ---------------------------------------------------------------------------------
 (2) _BUTTON_Enable                                        1     1      0      22
                                             44 COMRAM     1     1      0
 ---------------------------------------------------------------------------------
 (1) _OpenI2C                                              2     1      1     133
                                             44 COMRAM     2     1      1
 ---------------------------------------------------------------------------------
 (1) _MPU6050_Init                                         0     0      0      22
                            _IdleI2C
                           _WriteI2C
 ---------------------------------------------------------------------------------
 (2) _WriteI2C                                             1     1      0      22
                                             45 COMRAM     1     1      0
                            _IdleI2C
 ---------------------------------------------------------------------------------
 (3) _IdleI2C                                              1     1      0       0
                                             44 COMRAM     1     1      0
 ---------------------------------------------------------------------------------
 (1) _LCDinit                                              1     1      0      88
                                             47 COMRAM     1     1      0
                             _LCDcmd
                          _LCDnibble
 ---------------------------------------------------------------------------------
 (2) _LCDcmd                                               1     1      0      66
                                             46 COMRAM     1     1      0
                          _LCDnibble
 ---------------------------------------------------------------------------------
 (2) _LCDnibble                                            2     2      0      22
                                             44 COMRAM     2     2      0
 ---------------------------------------------------------------------------------
 (1) _APP_DeviceMouseTasks                                 1     1      0      89
                                             45 COMRAM     1     1      0
                   _BUTTON_IsPressed
 ---------------------------------------------------------------------------------
 (2) _BUTTON_IsPressed                                     1     1      0      22
                                             44 COMRAM     1     1      0
 ---------------------------------------------------------------------------------
 Estimated maximum stack depth 3
 ---------------------------------------------------------------------------------
 (Depth) Function   	        Calls       Base Space   Used Autos Params    Refs
 ---------------------------------------------------------------------------------
 (4) _SYS_InterruptHigh                                   14    14      0   33007
                                             30 COMRAM    14    14      0
                     _USBDeviceTasks
 ---------------------------------------------------------------------------------
 (5) _USBDeviceTasks                                       1     1      0   33007
                                             29 COMRAM     1     1      0
          _USBCtrlEPAllowStatusStage
                   _USBCtrlEPService
      _USBIncrement1msInternalTimers
                    _USBStallHandler
                         _USBSuspend
                 _USBWakeFromSuspend
    _USER_USB_CALLBACK_EVENT_HANDLER
                    i2_USBDeviceInit
 ---------------------------------------------------------------------------------
 (6) i2_USBDeviceInit                                      1     1      0     610
                                              8 COMRAM     1     1      0
                           i2_memset
 ---------------------------------------------------------------------------------
 (6) _USBWakeFromSuspend                                   0     0      0    4388
    _USER_USB_CALLBACK_EVENT_HANDLER
 ---------------------------------------------------------------------------------
 (6) _USBSuspend                                           0     0      0    4388
    _USER_USB_CALLBACK_EVENT_HANDLER
 ---------------------------------------------------------------------------------
 (6) _USBStallHandler                                      1     1      0       0
                                              0 COMRAM     1     1      0
 ---------------------------------------------------------------------------------
 (6) _USBIncrement1msInternalTimers                        0     0      0       0
 ---------------------------------------------------------------------------------
 (6) _USBCtrlEPService                                     1     1      0   19187
                                             28 COMRAM     1     1      0
                _USBCtrlTrfInHandler
               _USBCtrlTrfOutHandler
             _USBCtrlTrfSetupHandler
                             _memcpy
 ---------------------------------------------------------------------------------
 (7) _memcpy                                              10     4      6     387
                                              0 COMRAM    10     4      6
 ---------------------------------------------------------------------------------
 (7) _USBCtrlTrfSetupHandler                               0     0      0   18571
                 _USBCheckStdRequest
           _USBCtrlEPServiceComplete
    _USER_USB_CALLBACK_EVENT_HANDLER
 ---------------------------------------------------------------------------------
 (8) _USBCtrlEPServiceComplete                             0     0      0      92
            _USBCtrlEPAllowDataStage
          _USBCtrlEPAllowStatusStage
 ---------------------------------------------------------------------------------
 (9) _USBCtrlEPAllowDataStage                              0     0      0      92
                _USBCtrlTrfTxService
 ---------------------------------------------------------------------------------
 (8) _USBCheckStdRequest                                   0     0      0   14091
            _USBStdFeatureReqHandler
                _USBStdGetDscHandler
             _USBStdGetStatusHandler
                _USBStdSetCfgHandler
    _USER_USB_CALLBACK_EVENT_HANDLER
 ---------------------------------------------------------------------------------
 (9) _USBStdSetCfgHandler                                  1     1      0    4886
                                             22 COMRAM     1     1      0
    _USER_USB_CALLBACK_EVENT_HANDLER
                           i2_memset
 ---------------------------------------------------------------------------------
 (7) i2_memset                                             8     2      6     408
                                              0 COMRAM     8     2      6
 ---------------------------------------------------------------------------------
 (9) _USBStdGetStatusHandler                               3     3      0      46
                                              0 COMRAM     3     3      0
 ---------------------------------------------------------------------------------
 (9) _USBStdGetDscHandler                                  2     2      0       0
                                              0 COMRAM     2     2      0
 ---------------------------------------------------------------------------------
 (9) _USBStdFeatureReqHandler                              6     6      0    4771
                                             22 COMRAM     6     6      0
    _USER_USB_CALLBACK_EVENT_HANDLER
 ---------------------------------------------------------------------------------
 (6) _USER_USB_CALLBACK_EVENT_HANDLER                      8     2      6    4388
                                             14 COMRAM     8     2      6
          _APP_DeviceMouseInitialize
          _APP_DeviceMouseSOFHandler
             _APP_LEDUpdateUSBStatus
                 _USBCheckHIDRequest
                i2_SYSTEM_Initialize
 ---------------------------------------------------------------------------------
 (7) i2_SYSTEM_Initialize                                  1     1      0      66
                                              1 COMRAM     1     1      0
                    i2_BUTTON_Enable
                       i2_LED_Enable
 ---------------------------------------------------------------------------------
 (8) i2_LED_Enable                                         1     1      0      22
                                              0 COMRAM     1     1      0
 ---------------------------------------------------------------------------------
 (8) i2_BUTTON_Enable                                      1     1      0      22
                                              0 COMRAM     1     1      0
 ---------------------------------------------------------------------------------
 (7) _USBCheckHIDRequest                                   0     0      0     155
    _APP_DeviceMouseIdleRateCallback
 ---------------------------------------------------------------------------------
 (8) _APP_DeviceMouseIdleRateCallback                      4     3      1     155
                                              0 COMRAM     4     3      1
 ---------------------------------------------------------------------------------
 (7) _APP_LEDUpdateUSBStatus                               0     0      0      44
                            _LED_Off
                             _LED_On
 ---------------------------------------------------------------------------------
 (8) _LED_On                                               1     1      0      22
                                              0 COMRAM     1     1      0
 ---------------------------------------------------------------------------------
 (8) _LED_Off                                              1     1      0      22
                                              0 COMRAM     1     1      0
 ---------------------------------------------------------------------------------
 (7) _APP_DeviceMouseSOFHandler                            0     0      0     787
                   _MPU6050_ReadAccX
                   _MPU6050_ReadAccY
               _USBTransferOnePacket
 ---------------------------------------------------------------------------------
 (8) _USBTransferOnePacket                                 7     3      4     599
                                              0 COMRAM     7     3      4
 ---------------------------------------------------------------------------------
 (8) _MPU6050_ReadAccY                                    12    10      2      94
                                              2 COMRAM    12    10      2
                            _ReadI2C
                          i2_IdleI2C
                         i2_WriteI2C
 ---------------------------------------------------------------------------------
 (8) _MPU6050_ReadAccX                                    12    10      2      94
                                              2 COMRAM    12    10      2
                            _ReadI2C
                          i2_IdleI2C
                         i2_WriteI2C
 ---------------------------------------------------------------------------------
 (9) i2_WriteI2C                                           1     1      0      22
                                              1 COMRAM     1     1      0
                          i2_IdleI2C
 ---------------------------------------------------------------------------------
 (10) i2_IdleI2C                                           1     1      0       0
                                              0 COMRAM     1     1      0
 ---------------------------------------------------------------------------------
 (9) _ReadI2C                                              0     0      0       0
 ---------------------------------------------------------------------------------
 (7) _APP_DeviceMouseInitialize                            0     0      0     644
                  _USBEnableEndpoint
 ---------------------------------------------------------------------------------
 (8) _USBEnableEndpoint                                    4     3      1     644
                                              8 COMRAM     4     3      1
               _USBConfigureEndpoint
 ---------------------------------------------------------------------------------
 (9) _USBConfigureEndpoint                                 8     7      1     400
                                              0 COMRAM     8     7      1
 ---------------------------------------------------------------------------------
 (7) _USBCtrlTrfOutHandler                                 0     0      0     114
                _USBCtrlTrfRxService
 ---------------------------------------------------------------------------------
 (8) _USBCtrlTrfRxService                                  2     2      0     114
                                              0 COMRAM     2     2      0
          _USBCtrlEPAllowStatusStage
 ---------------------------------------------------------------------------------
 (9) _USBCtrlEPAllowStatusStage                            0     0      0       0
 ---------------------------------------------------------------------------------
 (7) _USBCtrlTrfInHandler                                  1     1      0     115
                                              1 COMRAM     1     1      0
                _USBCtrlTrfTxService
 ---------------------------------------------------------------------------------
 (10) _USBCtrlTrfTxService                                 1     1      0      92
                                              0 COMRAM     1     1      0
 ---------------------------------------------------------------------------------
 Estimated maximum stack depth 10
 ---------------------------------------------------------------------------------

 Call Graph Graphs:

 _main (ROOT)
   _APP_DeviceMouseTasks
     _BUTTON_IsPressed
   _LCDcmd
     _LCDnibble
   _LCDinit
     _LCDcmd
       _LCDnibble
     _LCDnibble
   _MPU6050_Init
     _IdleI2C
     _WriteI2C
       _IdleI2C
   _OpenI2C
   _SYSTEM_Initialize
     _BUTTON_Enable
     _LED_Enable
   _USBDeviceAttach
   _USBDeviceInit
     _memset

 _SYS_InterruptHigh (ROOT)
   _USBDeviceTasks
     _USBCtrlEPAllowStatusStage
     _USBCtrlEPService
       _USBCtrlTrfInHandler
         _USBCtrlTrfTxService
       _USBCtrlTrfOutHandler
         _USBCtrlTrfRxService
           _USBCtrlEPAllowStatusStage
       _USBCtrlTrfSetupHandler
         _USBCheckStdRequest
           _USBStdFeatureReqHandler
             _USER_USB_CALLBACK_EVENT_HANDLER
               _APP_DeviceMouseInitialize
                 _USBEnableEndpoint
                   _USBConfigureEndpoint
               _APP_DeviceMouseSOFHandler
                 _MPU6050_ReadAccX
                   _ReadI2C
                   i2_IdleI2C
                   i2_WriteI2C
                     i2_IdleI2C
                 _MPU6050_ReadAccY
                   _ReadI2C
                   i2_IdleI2C
                   i2_WriteI2C
                     i2_IdleI2C
                 _USBTransferOnePacket
               _APP_LEDUpdateUSBStatus
                 _LED_Off
                 _LED_On
               _USBCheckHIDRequest
                 _APP_DeviceMouseIdleRateCallback
               i2_SYSTEM_Initialize
                 i2_BUTTON_Enable
                 i2_LED_Enable
           _USBStdGetDscHandler
           _USBStdGetStatusHandler
           _USBStdSetCfgHandler
             _USER_USB_CALLBACK_EVENT_HANDLER
               _APP_DeviceMouseInitialize
                 _USBEnableEndpoint
                   _USBConfigureEndpoint
               _APP_DeviceMouseSOFHandler
                 _MPU6050_ReadAccX
                   _ReadI2C
                   i2_IdleI2C
                   i2_WriteI2C
                     i2_IdleI2C
                 _MPU6050_ReadAccY
                   _ReadI2C
                   i2_IdleI2C
                   i2_WriteI2C
                     i2_IdleI2C
                 _USBTransferOnePacket
               _APP_LEDUpdateUSBStatus
                 _LED_Off
                 _LED_On
               _USBCheckHIDRequest
                 _APP_DeviceMouseIdleRateCallback
               i2_SYSTEM_Initialize
                 i2_BUTTON_Enable
                 i2_LED_Enable
             i2_memset
           _USER_USB_CALLBACK_EVENT_HANDLER
             _APP_DeviceMouseInitialize
               _USBEnableEndpoint
                 _USBConfigureEndpoint
             _APP_DeviceMouseSOFHandler
               _MPU6050_ReadAccX
                 _ReadI2C
                 i2_IdleI2C
                 i2_WriteI2C
                   i2_IdleI2C
               _MPU6050_ReadAccY
                 _ReadI2C
                 i2_IdleI2C
                 i2_WriteI2C
                   i2_IdleI2C
               _USBTransferOnePacket
             _APP_LEDUpdateUSBStatus
               _LED_Off
               _LED_On
             _USBCheckHIDRequest
               _APP_DeviceMouseIdleRateCallback
             i2_SYSTEM_Initialize
               i2_BUTTON_Enable
               i2_LED_Enable
         _USBCtrlEPServiceComplete
           _USBCtrlEPAllowDataStage
             _USBCtrlTrfTxService
           _USBCtrlEPAllowStatusStage
         _USER_USB_CALLBACK_EVENT_HANDLER
           _APP_DeviceMouseInitialize
             _USBEnableEndpoint
               _USBConfigureEndpoint
           _APP_DeviceMouseSOFHandler
             _MPU6050_ReadAccX
               _ReadI2C
               i2_IdleI2C
               i2_WriteI2C
                 i2_IdleI2C
             _MPU6050_ReadAccY
               _ReadI2C
               i2_IdleI2C
               i2_WriteI2C
                 i2_IdleI2C
             _USBTransferOnePacket
           _APP_LEDUpdateUSBStatus
             _LED_Off
             _LED_On
           _USBCheckHIDRequest
             _APP_DeviceMouseIdleRateCallback
           i2_SYSTEM_Initialize
             i2_BUTTON_Enable
             i2_LED_Enable
       _memcpy
     _USBIncrement1msInternalTimers
     _USBStallHandler
     _USBSuspend
       _USER_USB_CALLBACK_EVENT_HANDLER
         _APP_DeviceMouseInitialize
           _USBEnableEndpoint
             _USBConfigureEndpoint
         _APP_DeviceMouseSOFHandler
           _MPU6050_ReadAccX
             _ReadI2C
             i2_IdleI2C
             i2_WriteI2C
               i2_IdleI2C
           _MPU6050_ReadAccY
             _ReadI2C
             i2_IdleI2C
             i2_WriteI2C
               i2_IdleI2C
           _USBTransferOnePacket
         _APP_LEDUpdateUSBStatus
           _LED_Off
           _LED_On
         _USBCheckHIDRequest
           _APP_DeviceMouseIdleRateCallback
         i2_SYSTEM_Initialize
           i2_BUTTON_Enable
           i2_LED_Enable
     _USBWakeFromSuspend
       _USER_USB_CALLBACK_EVENT_HANDLER
         _APP_DeviceMouseInitialize
           _USBEnableEndpoint
             _USBConfigureEndpoint
         _APP_DeviceMouseSOFHandler
           _MPU6050_ReadAccX
             _ReadI2C
             i2_IdleI2C
             i2_WriteI2C
               i2_IdleI2C
           _MPU6050_ReadAccY
             _ReadI2C
             i2_IdleI2C
             i2_WriteI2C
               i2_IdleI2C
           _USBTransferOnePacket
         _APP_LEDUpdateUSBStatus
           _LED_Off
           _LED_On
         _USBCheckHIDRequest
           _APP_DeviceMouseIdleRateCallback
         i2_SYSTEM_Initialize
           i2_BUTTON_Enable
           i2_LED_Enable
     _USER_USB_CALLBACK_EVENT_HANDLER
       _APP_DeviceMouseInitialize
         _USBEnableEndpoint
           _USBConfigureEndpoint
       _APP_DeviceMouseSOFHandler
         _MPU6050_ReadAccX
           _ReadI2C
           i2_IdleI2C
           i2_WriteI2C
             i2_IdleI2C
         _MPU6050_ReadAccY
           _ReadI2C
           i2_IdleI2C
           i2_WriteI2C
             i2_IdleI2C
         _USBTransferOnePacket
       _APP_LEDUpdateUSBStatus
         _LED_Off
         _LED_On
       _USBCheckHIDRequest
         _APP_DeviceMouseIdleRateCallback
       i2_SYSTEM_Initialize
         i2_BUTTON_Enable
         i2_LED_Enable
     i2_USBDeviceInit
       i2_memset

 Address spaces:
Name               Size   Autos  Total    Cost      Usage
BIGRAMll           3FF      0       0      23        0.0%
BIGRAMh            2FD      0       0      21        0.0%
EEDATA             100      0       0       0        0.0%
BITBANK7           100      0       0      19        0.0%
BANK7              100      0       0      20        0.0%
BITBANK6           100      0       0      16        0.0%
BANK6              100      0       0      17        0.0%
BITBANK3           100      0       0      10        0.0%
BANK3              100      0       0      11        0.0%
BITBANK2           100      0       0       8        0.0%
BANK2              100      0       0       9        0.0%
BITBANK1           100      0       0       6        0.0%
BANK1              100      0       0       7        0.0%
BITBANK5            FD      0       0      14        0.0%
BANK5               FD      0       0      15        0.0%
BIGRAMlh            D0      0       0      22        0.0%
BITBANK4            D0      0       0      12        0.0%
BANK4               D0      0       0      13        0.0%
BITBANK0            A0      0       0       4        0.0%
BANK0               A0      5      5F       5       59.4%
BITCOMRAM           5E      0       0       0        0.0%
COMRAM              5E     32      5D       1       98.9%
BITSFR               0      0       0      40        0.0%
SFR                  0      0       0      40        0.0%
STACK                0      0       0       2        0.0%
NULL                 0      0       0       0        0.0%
ABS                  0      0      BC      18        0.0%
DATA                 0      0      BC       3        0.0%
CODE                 0      0       0       0        0.0%


Microchip Technology PIC18 Macro Assembler V1.35 build -356382666 
Symbol Table                                                                                   Tue Feb 23 18:55:38 2016

                              _USB_SD_Ptr 7EE9                                         _x 009B  
                             _SSPSTATbits 000FC7                                        l89 17A6  
                                      l98 17CC                               ?_LED_Enable 0001  
                             __CFG_BOR$ON 000000                                        _ax 009D  
                                      _ay 00A1                                        _az 00A5  
                                      _gx 00A9                                        _gy 00AD  
                                      _gz 00B1                             _USBDeviceInit 029E  
                             __CFG_BORV$3 000000                        _USBCheckHIDRequest 09FA  
                              i2_WriteI2C 17E0                              __CFG_CP0$OFF 000000  
                            __CFG_CP1$OFF 000000      USER_USB_CALLBACK_EVENT_HANDLER@event 000F  
    USER_USB_CALLBACK_EVENT_HANDLER@pdata 0011                                       l241 1660  
                                     l244 1666               __end_of_USBStdGetDscHandler 0680  
                                     l238 162E                                       l247 1698  
                                     l416 18DE                                       l621 1A68  
                                     l622 1A6C                                       l623 1A70  
                                     l561 1A38                                       l619 1A64  
                                     l559 1A2C                                       l567 1CFC  
                                     l569 1D00                                       l825 1BC6  
                                     l826 1BC4                                       _BDT 000400  
                                     l765 0304                              __CFG_CPB$OFF 000000  
                                     _UIE 000F69                                       _UIR 000F68  
                  _APP_LEDUpdateUSBStatus 15AC                                       _acx 0039  
                                     _acy 003B                                       _acz 003D  
                              _USBSuspend 1C58                      USBStdSetCfgHandler@i 0017  
                                     prod 000FF3                                       wreg 000FE8  
                          _USBDeviceTasks 07B4                       ?_USBCheckHIDRequest 0001  
                          _USBDeviceState 0051        __size_of_APP_DeviceMouseInitialize 002E  
                           _BUTTON_Enable 1CF8                ?_APP_DeviceMouseInitialize 0001  
                   ??_USBCtrlTrfRxService 0001                  __size_ofi2_USBDeviceInit 0148  
                USBEnableEndpoint@options 0009                              __CFG_LVP$OFF 000000  
                         __end_of_LED_Off 1B6E                              __CFG_WDT$OFF 000000  
              USBConfigureEndpoint@handle 0007                                      l4503 17B8  
                                    l4531 1D04                                      l4541 1A48  
                                    l4517 17DC                                      l4525 1A74  
                                    l4535 1A44                           __end_of_LCDinit 1710  
                                    l4369 1DC8                                      l4721 1CC2  
                                    l4555 1BDA                                      l5099 18D6  
                                    l4485 1790                                      l4717 1CB4  
                                    l4559 1BEC                                      l4499 17B4  
                                    l4923 034E                                      l4907 030E  
                                    l4919 0344                                      l4929 03B4  
                                    l4891 02DA                                      l4895 02E4  
                   ??i2_SYSTEM_Initialize 0002                                      _LATD 000F8C  
                                    u4220 19D8                                      u4230 19DA  
                                    u3770 1A34                                      u4717 16B0  
                                    u3790 1A40                                      u4727 16C6  
                                    u4737 16DC                                      i2l50 1DAA  
                                    u4747 16F2                                      u4757 1C3E  
                                    u4767 1C4E                     ??_USBCtrlTrfTxService 0001  
                                    i2l49 1DA8                                      _UCFG 000F6F  
                                    i2l89 1804                                      i2l98 182A  
                                    _UEP0 000F70                                      _UEP1 000F71  
                                    _UEIE 000F6B                                      _UEIR 000F6A  
                                    _UCON 000F6D                                      _accx 0089  
                                    _accy 008B                                      _accz 008D  
  USBStdFeatureReqHandler@current_ep_data 001A                                      _pDst 0049  
                                    _main 189A                                      _sign 00B8  
                                    fsr0h 000FEA                                      fsr1h 000FE2  
                                    indf0 000FEF                                      fsr0l 000FE9  
                                    fsr2h 000FDA                                      indf1 000FE7  
                                    fsr1l 000FE1                                      indf2 000FDF  
                                    fsr2l 000FD9                           _USBDeviceAttach 1BA0  
                                    btemp 005E                                      pclat 000FFA  
                                    prodh 000FF4                                      prodl 000FF3  
                                    start 0016                  __size_ofi2_BUTTON_Enable 0022  
                           __CFG_IESO$OFF 000000                           __end_of_IdleI2C 1DDA  
                    ??_USBCheckHIDRequest 0005                __end_of_USBCheckStdRequest 0CE8  
                  ??_USBCtrlTrfOutHandler 0003                              ___param_bank 000010  
               ??_USBStdFeatureReqHandler 0017                           __end_of_ReadI2C 1DB2  
                      __size_of_LCDnibble 002C                           __end_of_OpenI2C 1D5A  
                ??_USBStdGetStatusHandler 0001                            ?_USBDeviceInit 0001  
                           __CFG_PLLDIV$5 000000                                     ?_main 0001  
       __size_of_USBCtrlEPServiceComplete 00F4                    __end_of_USBDeviceTasks 08E2  
               ?_USBCtrlEPServiceComplete 0001                                     i2l301 121A  
                                   i2l271 123C                                     i2l280 12B4  
                                   i2l274 126A                                     i2l283 12BA  
                                   i2l292 11CA                                     i2l277 1298  
                                   i2l621 1A9E                                     i2l622 1AA2  
                                   i2l295 11F8                                     i2l623 1AA6  
                                   i2l289 119C                                     i2l298 1214  
                                   i2l619 1A9A                                     i2l581 1B0A  
                                   i2l582 1B0E                                     i2l591 1B40  
                                   i2l583 1B12                                     i2l567 1D1E  
                                   i2l592 1B44                                     i2l593 1B48  
                                   i2l569 1D22                                     i2l913 1030  
                                   i2l850 0B7C                                     i2l579 1B06  
                                   i2l916 10C2                                     i2l589 1B3C  
                                   i2l917 1044                                     i2l765 045A  
                                   i2l918 104A                                     i2l926 196C  
                                   i2l776 07DC                                     i2l961 1012  
                                   i2l786 0868                                     _UADDR 000F6E  
                                   i2l787 08DE                                     i2l788 0878  
                                   i2l990 0044                                     i2l975 0C06  
                                   i2l984 0C6A                             __CFG_USBDIV$2 000000  
                                   _TRISD 000F95                                     _USTAT 000F6C  
                           __CFG_PWRT$OFF 000000                             __CFG_WRT0$OFF 000000  
      __size_of_USBCtrlEPAllowStatusStage 00C4                             __CFG_WRT1$OFF 000000  
                          __CFG_EBTR0$OFF 000000                            __CFG_FCMEN$OFF 000000  
                          ?_BUTTON_Enable 0001                            __CFG_EBTR1$OFF 000000  
         __end_of_USBCtrlEPAllowDataStage 1378                                     _sd000 7FFA  
                                   _sd001 7EF9                                     _sd002 7F5F  
                      __size_ofi2_IdleI2C 0012                             __CFG_WRTB$OFF 000000  
          ?_USBIncrement1msInternalTimers 0001                             __CFG_WRTC$OFF 000000  
                          __CFG_EBTRB$OFF 000000                                i2memset@p1 0001  
                           ?_MPU6050_Init 0001                                     _errno 0093  
       __end_of_APP_DeviceMouseInitialize 1C2C                 __size_of_BUTTON_IsPressed 0038  
                         __end_of_xVector 7EF3                                     _gyrox 0095  
                                   _gyroy 0097                                     _gyroz 0099  
                                   _mouse 0060                           __end_of_yVector 7EF7  
                                   main@i 00BD                                     tablat 000FF5  
                     __size_of_LED_Enable 0036                                     plusw2 000FDB  
                                   status 000FD8                      MPU6050_ReadAccX@accx 0009  
                    MPU6050_ReadAccY@accy 0009                          __end_ofi2_memset 1CB0  
                  ??_APP_DeviceMouseTasks 002E              __size_of_USBStdSetCfgHandler 00E2  
                          __CFG_MCLRE$OFF 000000                           __initialization 18E8  
             ??_APP_DeviceMouseSOFHandler 000F                              __end_of_main 18E8  
                             ?i2_WriteI2C 0001                 __size_of_USBCtrlEPService 0090  
                                  ??_main 0033                             __activetblptr 000002  
                         ?_USBDeviceTasks 0001                               ?_USBSuspend 0001  
                               ??_LED_Off 0001                                 ??_LCDinit 0030  
                          ??_MPU6050_Init 002F                   __end_of_USBDeviceAttach 1BD0  
                                  _ADCON0 000FC2                                    _ADCON2 000FC0  
                       __end_of_LCDnibble 1C58                          _MPU6050_ReadAccX 123A  
                        _MPU6050_ReadAccY 119A                                    _ADRESH 000FC4  
                                  _ADRESL 000FC3                          __end_of_WriteI2C 17E0  
                  SYSTEM_Initialize@state 002E                               OpenI2C@slew 002D  
                                  i2l1009 020A                                    i2l4011 0EE6  
                                  _LED_On 1B02                                    i2l4121 0668  
                                  i2l4041 1328                                    i2l4203 01A4  
                                  i2l4115 0658                                    i2l4107 05FE  
                                  i2l4301 0936                                    i2l4213 01EA  
                                  i2l4117 0660                                    i2l4109 0606  
                                  i2l4133 106A                                    i2l4061 0D2A  
                                  i2l4045 1344                                    i2l4231 0278  
                                  i2l4223 0226                                    i2l4215 01F6  
                                  i2l4143 10AA                                    i2l4071 0D5E  
                                  i2l4313 0994                                    i2l4161 0040  
                                  i2l4065 0D32                                    i2l3603 1816  
                                  i2l4317 09AE                                    i2l5221 15A6  
                                  i2l4229 026C                                    i2l4181 00FE  
                                  i2l4183 0100                                    i2l4175 00BA  
                                  i2l4095 0556                                    i2l4087 0DA8  
                                  i2l4351 0C44                                    i2l4335 0C10  
                                  i2l4247 0B26                                    i2l4433 1894  
                                  i2l4425 184C                                    i2l3625 19FC  
                                  i2l3617 183A                                    i2l4361 0C86  
                                  i2l4337 0C16                                    i2l3547 1DDA  
                                  i2l3803 0774                                    i2l3731 1D26  
                                  i2l5219 1572                                    i2l4187 011C  
                                  i2l4099 056E                                    i2l4347 0C38  
                                  i2l4339 0C1C                                    i2l4267 0BA2  
                                  i2l4461 0FD8                                    i2l3629 1A0A  
                                  i2l3709 117C                                    i2l3813 0794  
                                  i2l3725 1B16                                    i2l3821 15B8  
                                  i2l4197 016E                                    i2l4349 0C3E  
                                  i2l4365 0CA4                                    i2l4447 0F92  
                                  i2l4295 0912                                    i2l3807 0780  
                                  i2l3719 1B4C                                    i2l3903 0ACC  
                                  i2l4199 018A                                    i2l4607 196A  
                                  i2l4473 101C                                    i2l4449 0F96  
                                  i2l3569 13DA                                    i2l3585 17EE  
                                  i2l3841 1612                                    i2l3833 15F0  
                                  i2l3825 15C8                                    i2l3737 1AAA  
                                  i2l3913 1CD8                                    i2l3921 152C  
                                  i2l4393 199E                                    i2l4625 1486  
                                  i2l4467 0FF8                                    i2l3931 1554  
                                  i2l4387 1982                                    i2l4627 148C  
                                  i2l4571 1B96                                    i2l3757 06A2  
                                  i2l3837 1600                                    i2l3829 15DA  
                                  i2l3909 0AD8                                    i2l3917 1CE6  
                                  i2l3925 1536                                    i2l4661 0464  
                                  i2l4645 0436                                    i2l4821 08DA  
                                  i2l4813 089E                                    i2l4741 07D4  
                                  i2l4733 07C8                                    i2l3599 1812  
                                  i2l3783 0718                                    i2l3847 161C  
                                  i2l3871 0A3E                                    i2l3863 0A1A  
                                  i2l3927 1542                                    i2l3935 155A  
                                  i2l3697 1120                                    i2l3689 10F6  
                                  i2l3769 06D0                                    i2l3849 1626  
                                  i2l3881 0A68                                    i2l3929 154E  
                                  i2l4569 1B94                                    i2l4673 0498  
                                  i2l4649 043E                                    i2l4761 07F8  
                                  _LCDcmd 1DB2                                    i2l3955 0DEC  
                                  i2l3795 0756                                    i2l3787 072E  
                                  i2l3891 0A96                                    i2l4683 04FC  
                                  i2l4819 08BE                                    i2l4755 07EE  
                                  i2l3885 0A78                                    i2l3869 0A36  
                                  i2l4677 04A0                                    i2l3959 0DF6  
                                  i2l3799 076C                                    i2l3879 0A56  
                                  i2l3991 1C8E                                    i2l4767 081C  
                                  i2l3969 0E22                                    i2l3977 0E58  
                                  i2l3897 0AAE                                    i2l4793 085E  
                                  i2l4785 083A                                    i2l3979 0E60  
                                  i2l3987 0E96                                    i2l3995 1C9E  
                                  i2l4779 0830                                    i2l4799 0870  
                               ??_IdleI2C 002D                                    _SSPADD 000FC8  
                                  _SSPBUF 000FC9                         ??i2_USBDeviceInit 0009  
                               ??_ReadI2C 0001                            __CFG_VREGEN$ON 000000  
                               ??_OpenI2C 002E                         _shortPacketStatus 0058  
                          __CFG_XINST$OFF 000000                           USBDeviceTasks@i 001E  
             USBStdFeatureReqHandler@pUEP 0018                  USBTransferOnePacket@data 0002  
              USBCtrlTrfInHandler@lastDTS 0002                         __end_ofi2_IdleI2C 1DEC  
                         ??_USBDeviceInit 0033                            __CFG_STVREN$ON 000000  
                       ??i2_BUTTON_Enable 0001                         _USBEnableEndpoint 19EC  
         __size_of_USBStdGetStatusHandler 00BE                                    _memcpy 1970  
                           ?i2_LED_Enable 0001                                    _memset 1BD0  
                                  _oldacx 003F                                    _oldacy 0041  
                                  _oldacz 0043                                    clear_0 18EE  
                                  clear_1 18FA                        ?_USBEnableEndpoint 0009  
           __size_of_USBTransferOnePacket 00BA                           ??_BUTTON_Enable 002D  
                            __mediumconst 7EE8                                    tblptrh 000FF7  
                                  tblptrl 000FF6                                    tblptru 000FF8  
               _APP_DeviceMouseSOFHandler 0680                       ??_USBEnableEndpoint 000A  
                             _CtrlTrfData 000428                     MPU6050_ReadAccX@accxh 000B  
                   MPU6050_ReadAccX@accxl 000D                     MPU6050_ReadAccY@accyh 000B  
                   MPU6050_ReadAccY@accyl 000D                      _controlTransferState 0056  
                        __end_ofexp@coeff 7FCD                         _SYSTEM_Initialize 1CB0  
                        __end_oflog@coeff 7FE8                                __accesstop 0060  
                 __end_of__initialization 1920                     MPU6050_ReadAccX@write 0007  
                         __CFG_PBADEN$OFF 000000                     MPU6050_ReadAccY@write 0007  
                     __size_ofi2_WriteI2C 005E                        ?_SYSTEM_Initialize 0001  
                           ___rparam_used 000001                  __size_of_USBStallHandler 0042  
                     __size_of_USBSuspend 002C                            __pcstackCOMRAM 0001  
               __end_of_USBEnableEndpoint 1A28                             __end_of_sd000 7FFE  
                           __end_of_sd001 7F2D                             __end_of_sd002 7F8D  
                            __pidataBANK0 1D78                       ??_SYSTEM_Initialize 002E  
                               LED_On@led 0001          __size_of_USBCtrlEPAllowDataStage 009E  
                          ??i2_LED_Enable 0001                           _active_protocol 005C  
                            ??_LED_Enable 002D             __size_of_USBConfigureEndpoint 0094  
             __end_of_USBCtrlTrfInHandler 1022                   ?_APP_LEDUpdateUSBStatus 0001  
                               ?i2_memset 0001                  ??_USBCtrlTrfSetupHandler 001D  
                 _USBTicksSinceSuspendEnd 0055               ??_APP_DeviceMouseInitialize 000D  
                        ?_USBDeviceAttach 0001                 __end_of_SYSTEM_Initialize 1CD4  
                        _BUTTON_IsPressed 1A28                    _USBStdGetStatusHandler 1022  
                              __pbssBANK0 0060                                   ?_LED_On 0001  
                                 ?_LCDcmd 0001                        __end_of_LED_Enable 1A96  
             __size_of_USBWakeFromSuspend 0032                               _pBDTEntryIn 0078  
        __end_of_USBCtrlEPServiceComplete 0BF6                      USBCtrlTrfRxService@i 0001  
                    __end_of_MPU6050_Init 169E                             LED_Enable@led 002D  
          __end_of_APP_LEDUpdateUSBStatus 162C                                   ?_memcpy 0001  
                                 ?_memset 002D                                _device_dsc 7FE8  
                               ?_WriteI2C 0001                          _USBCtrlEPService 140C  
                              _ep_data_in 008F               __end_of_USBCtrlTrfRxService 09FA  
                      _USBCheckStdRequest 0BF6                         _configDescriptor1 7F8D  
                                 _LED_Off 1B38               __end_ofi2_SYSTEM_Initialize 1CF8  
                                 _LCDinit 169E                                ??i2_memset 0007  
             __end_of_USBCtrlTrfTxService 0E9E                       _USBStdSetCfgHandler 0CE8  
                                 _SSPCON1 000FC6                                   _SSPCON2 000FC5  
                     ?_USBCheckStdRequest 0001              __size_of_USBStdGetDscHandler 013C  
                                 _UIEbits 000F69                                   _SSPSTAT 000FC7  
                                 _UIRbits 000F68                                   _IdleI2C 1DC8  
                         __size_of_LED_On 0036                           __size_of_LCDcmd 0016  
          APP_LEDUpdateUSBStatus@ledCount 0037                                   _ReadI2C 1D96  
                                 _OpenI2C 1D3C                                   __Hparam 0000  
         ??_USBIncrement1msInternalTimers 0001                      ?_USBStdSetCfgHandler 0001  
             __size_of_USBCheckHIDRequest 0108                                   __Lparam 0000  
                       __end_of_hid_rpt01 7F5F                __size_of_USBEnableEndpoint 003C  
               _APP_DeviceMouseInitialize 1BFE                      ??_USBCheckStdRequest 001D  
           __size_of_USBCtrlTrfOutHandler 005C                  __end_of_MPU6050_ReadAccX 12DA  
                __end_of_MPU6050_ReadAccY 123A                          ??_USBDeviceTasks 001E  
                       ??_USBStallHandler 0001   __end_of_APP_DeviceMouseIdleRateCallback 1B02  
__size_of_APP_DeviceMouseIdleRateCallback 0036         ??_APP_DeviceMouseIdleRateCallback 0002  
        ?_APP_DeviceMouseIdleRateCallback 0001           _APP_DeviceMouseIdleRateCallback 1ACC  
                            ??i2_WriteI2C 0002                                   __pcinit 18E8  
                              ??_WriteI2C 002E                           __size_of_memcpy 0040  
                         __size_of_memset 002E                 __end_of_configDescriptor1 7FAF  
                                 __ramtop 0800                                   __ptext0 189A  
                                 __ptext1 029E                                   __ptext2 1BD0  
                                 __ptext3 1BA0                                   __ptext4 1CB0  
                                 __ptext5 1A60                                   __ptext6 1CF8  
                                 __ptext7 1D3C                                   __ptext8 162C  
                                 __ptext9 1782                                   _inPipes 0072  
             _USBDeferOUTDataStagePackets 004F                                   _gforcex 0080  
                                 _gforcey 0083                                   _gforcez 0086  
                            ??_USBSuspend 0017                                   _xVector 7EEF  
                                 _yVector 7EF3                           i2_USBDeviceInit 03FC  
                        i2USBDeviceInit@i 0009                        __end_of_USB_CD_Ptr 7EF9  
              __size_of_SYSTEM_Initialize 0024           __size_of_USBCtrlTrfSetupHandler 008E  
                          __pintcode_body 1710                      end_of_initialization 1920  
                    __end_ofi2_LED_Enable 1ACC                        __end_of_USB_SD_Ptr 7EEF  
                                 memcpy@d 0007                                   memcpy@n 0005  
                                 memcpy@s 0009                       _pBDTEntryEP0OutNext 0047  
                               _LCDnibble 1C2C                                   memset@c 002F  
                                 memset@n 0031                                   memset@p 00BA  
                           __Lmediumconst 7EE8                                   int_func 1710  
                         _USB1msTickCount 0033                           i2_BUTTON_Enable 1D1A  
                ?_USBStdFeatureReqHandler 0001                        __end_ofi2_WriteI2C 183E  
                   ??_USBStdSetCfgHandler 0017             __size_of_APP_DeviceMouseTasks 003C  
                      __end_of_USBSuspend 1C84                   _USBCtrlEPAllowDataStage 12DA  
                                 postdec1 000FE5                                   postdec2 000FDD  
                                 postinc0 000FEE                                   postinc2 000FDE  
                _USBCtrlEPServiceComplete 0B02                                 i2_IdleI2C 1DDA  
              _USBStatusStageEnabledFlag1 0052                _USBStatusStageEnabledFlag2 0053  
                      USBEnableEndpoint@p 000A                                 _PORTBbits 000F81  
                               _TRISAbits 000F92                                 _TRISBbits 000F93  
                               _TRISDbits 000F95                        _BothEP0OutUOWNsSet 004B  
               USBConfigureEndpoint@EPNum 0006                ?_USBCtrlEPAllowStatusStage 0001  
     USER_USB_CALLBACK_EVENT_HANDLER@size 0013                                 _USTATcopy 005B  
                              ?_LCDnibble 0001              __end_of_USBTransferOnePacket 119A  
                          __end_of_LED_On 1B38                            __end_of_LCDcmd 1DC8  
                   __size_of_MPU6050_Init 0072   APP_DeviceMouseIdleRateCallback@idleRate 0001  
                  _USBCtrlTrfSetupHandler 149C                  __end_of_BUTTON_IsPressed 1A60  
                   __end_of_USBDeviceInit 03FC     __end_of_USBIncrement1msInternalTimers 1D78  
  __size_of_USBIncrement1msInternalTimers 001E             _USBIncrement1msInternalTimers 1D5A  
                              LED_Off@led 0001                                ?i2_IdleI2C 0001  
                 __end_ofi2_USBDeviceInit 0544                                 i2memset@c 0003  
                               i2memset@n 0005                                 i2memset@p 0007  
                          __end_of_memcpy 19B0                            __end_of_memset 1BFE  
 APP_DeviceMouseIdleRateCallback@reportId 0004                         _USBBusIsSuspended 004D  
                     start_initialization 18E8                   ?_USBStdGetStatusHandler 0001  
                              LCDcmd@byte 002F                  i2SYSTEM_Initialize@state 0002  
                   __end_of_BUTTON_Enable 1D1A             USBCtrlTrfRxService@byteToRead 0002  
                 __end_ofi2_BUTTON_Enable 1D3C                         __size_ofi2_memset 002C  
                            _MPU6050_Init 162C              __end_of_USBConfigureEndpoint 140C  
                        WriteI2C@data_out 002E           __end_of_USBStdFeatureReqHandler 029E  
                                ??_LED_On 0001         __end_of_USBCtrlEPAllowStatusStage 0F62  
                                ??_LCDcmd 002F                  __end_of_USBCtrlEPService 149C  
               ??_USBCtrlEPAllowDataStage 0002                            USBDeviceInit@i 00BC  
                  _pBDTEntryEP0OutCurrent 0045                   USBTransferOnePacket@dir 0001  
                 USBTransferOnePacket@len 0004                       _USBStdGetDscHandler 0544  
                             __pdataBANK0 009D                          __CFG_LPT1OSC$OFF 000000  
                                ??_memcpy 0007                                  ??_memset 0033  
                  BUTTON_IsPressed@button 002D                    _USBActiveConfiguration 0059  
          __end_of_USBStdGetStatusHandler 10E0                         __size_of_WriteI2C 005E  
                                ?_LED_Off 0001                               __pbssCOMRAM 0033  
                                ?_LCDinit 0001                             __pcstackBANK0 00BA  
            __size_of_USBCtrlTrfInHandler 00C0                     __size_ofi2_LED_Enable 0036  
                    ?_USBStdGetDscHandler 0001                                  ?_IdleI2C 0001  
              __end_of_USBWakeFromSuspend 1BA0                               ??_LCDnibble 002D  
                         _USBStallHandler 192E                              _pBDTEntryOut 007C  
                                ?_ReadI2C 0001                  __size_of_USBDeviceAttach 0030  
                                ?_OpenI2C 002D    APP_DeviceMouseTasks@currentButtonState 002E  
                   i2BUTTON_Enable@button 0001                                 __pintcode 0008  
                           __pmediumconst 7EE8                         ?_MPU6050_ReadAccX 0003  
                       ?_MPU6050_ReadAccY 0003                                 _hid_rpt01 7F2D  
                               _idle_rate 005D                              i2_LED_Enable 1A96  
                             ??i2_IdleI2C 0001                          ?i2_USBDeviceInit 0001  
                      ??_MPU6050_ReadAccX 0005                        ??_MPU6050_ReadAccY 0005  
                    _USBTransferOnePacket 10E0              __end_of_USBCtrlTrfOutHandler 189A  
                   ??_USBStdGetDscHandler 0001                               _ep_data_out 0091  
                        ?i2_BUTTON_Enable 0001              __size_of_USBCtrlTrfRxService 0118  
           USBConfigureEndpoint@direction 0001              __size_ofi2_SYSTEM_Initialize 0024  
            __size_of_USBCtrlTrfTxService 00D4                                  _LATDbits 000F8C  
              __end_of_USBCheckHIDRequest 0B02                ??_USBCtrlEPServiceComplete 0002  
                                _IPR2bits 000FA2                                  _PIE2bits 000FA0  
                                i2u300_40 0E4A                                  i2u300_47 0E40  
                                i2u302_40 0E88                                  i2u302_47 0E7E  
                                i2u316_40 05C4                                  i2u316_47 05BA  
                                i2u317_40 05F8                                  i2u317_47 05EE  
                                i2u319_40 064C                                  i2u319_47 0642  
                                _PIR1bits 000F9E                                  _PIR2bits 000FA1  
                                i2u287_40 15E6                                  _RCONbits 000FD0  
                        __CFG_WDTPS$32768 000000                                  _UEP0bits 000F70  
              _USBDeferINDataStagePackets 004E               __size_of_USBCheckStdRequest 00F2  
                                _UCONbits 000F6D                      _USBConfigureEndpoint 1378  
                             _gforcescale 00B5          __size_of_USBStdFeatureReqHandler 0284  
                              _ADCON0bits 000FC2                                _ADCON1bits 000FC1  
                              _ADCON2bits 000FC0                     ?_USBTransferOnePacket 0001  
                         i2LED_Enable@led 0001                         _SYS_InterruptHigh 0008  
            __end_of_APP_DeviceMouseTasks 19EC                              _RemoteWakeup 004C  
                                i2_memset 1C84                          __size_of_LED_Off 0036  
                      ?_SYS_InterruptHigh 0001                          __size_of_LCDinit 0072  
                 __end_of_USBStallHandler 1970                                 copy_data0 1914  
             ??_USBCtrlEPAllowStatusStage 0001               __end_of_USBStdSetCfgHandler 0DCA  
                        OpenI2C@sync_mode 002E                       ??_SYS_InterruptHigh 001F  
                        __size_of_IdleI2C 0012                        __end_of_device_dsc 7FFA  
                ??_APP_LEDUpdateUSBStatus 0002                   ?_USBCtrlTrfSetupHandler 0001  
                        __size_of_ReadI2C 001C                   USBStdGetStatusHandler@p 0002  
                                __Hrparam 0000                          __size_of_OpenI2C 001E  
                                __Lrparam 0000                    USBTransferOnePacket@ep 0005  
                                _SetupPkt 000420                     ?_USBConfigureEndpoint 0001  
                       ??_USBDeviceAttach 002D                         ?_BUTTON_IsPressed 0001  
                                _WriteI2C 1782                 __end_of_SYS_InterruptHigh 1782  
                      ??_BUTTON_IsPressed 002D                   __size_of_USBDeviceTasks 012E  
                                __ptext10 1DC8                                  __ptext11 169E  
                                __ptext20 1C58                                  __ptext12 1DB2  
                                __ptext21 192E                                  __ptext13 1C2C  
                                __ptext30 1C84                                  __ptext22 1D5A  
                                __ptext14 19B0                                  __ptext31 1022  
                                __ptext23 140C                                  __ptext15 1A28  
                                __ptext40 15AC                                  __ptext32 0544  
                                __ptext24 1970                                  __ptext41 1B02  
                                __ptext33 001A                                  __ptext25 149C  
                                __ptext17 07B4                                  __ptext50 1BFE  
                                __ptext42 1B38                                  __ptext34 152A  
                                __ptext26 0B02                                  __ptext18 03FC  
                                __ptext51 19EC                                  __ptext43 0680  
                                __ptext35 1CD4                                  __ptext27 12DA  
                                __ptext19 1B6E                                  __ptext52 1378  
                                __ptext44 10E0                                  __ptext36 1A96  
                                __ptext28 0BF6                                  __ptext53 183E  
                                __ptext45 119A                                  __ptext37 1D1A  
                                __ptext29 0CE8                                  __ptext54 08E2  
                                __ptext46 123A                                  __ptext38 09FA  
                                __ptext55 0E9E                                  __ptext47 17E0  
                                __ptext39 1ACC                                  __ptext56 0F62  
                                __ptext48 1DDA                                  __ptext57 0DCA  
                                __ptext49 1D96            __end_of_USBCtrlTrfSetupHandler 152A  
                           __size_of_main 004E                         ?_USBCtrlEPService 0001  
                      ??_USBCtrlEPService 001D        __size_of_APP_DeviceMouseSOFHandler 0134  
                         LCDnibble@nibble 002E                       _USBCtrlTrfInHandler 0F62  
              ?_APP_DeviceMouseSOFHandler 0001                       BUTTON_Enable@button 002D  
                                _outPipes 006A                      _USBCtrlTrfOutHandler 183E  
                                int$flags 005E                 _USBCtrlEPAllowStatusStage 0E9E  
                              _LED_Enable 1A60                    ??_USBTransferOnePacket 0005  
                   __CFG_CPUDIV$OSC1_PLL2 000000                                  exp@coeff 7FAF  
                                log@coeff 7FCD                 _USBDeferStatusStagePacket 0050  
                              _INTCONbits 000FF2                      ?_USBCtrlTrfInHandler 0001  
                                memcpy@d1 0001                                  memcpy@s1 0003  
           USBCtrlTrfTxService@byteToSend 0001                                  memset@p1 002D  
                        ?_USBStallHandler 0001                  USBStdFeatureReqHandler@p 001B  
                                intlevel2 0000                    __size_of_USBDeviceInit 015E  
 __end_of_USER_USB_CALLBACK_EVENT_HANDLER 15AC  __size_of_USER_USB_CALLBACK_EVENT_HANDLER 0082  
       ??_USER_USB_CALLBACK_EVENT_HANDLER 0015          ?_USER_USB_CALLBACK_EVENT_HANDLER 000F  
         _USER_USB_CALLBACK_EVENT_HANDLER 152A                        i2WriteI2C@data_out 0002  
         __size_of_APP_LEDUpdateUSBStatus 0080                      _APP_DeviceMouseTasks 19B0  
                  ??_USBConfigureEndpoint 0002                     ?_USBCtrlTrfOutHandler 0001  
                  __size_of_BUTTON_Enable 0022         __end_of_APP_DeviceMouseSOFHandler 07B4  
                     _USBCtrlTrfRxService 08E2                        _USBWakeFromSuspend 1B6E  
                 _USBStdFeatureReqHandler 001A                               _mouseReport 000500  
                     i2_SYSTEM_Initialize 1CD4                       _USBCtrlTrfTxService 0DCA  
              __size_of_SYS_InterruptHigh 177A                       ?_USBWakeFromSuspend 0001  
                   ??_USBCtrlTrfInHandler 0002                     _USBAlternateInterface 005A  
                             _SSPCON1bits 000FC6                               _SSPCON2bits 000FC5  
                     USBEnableEndpoint@ep 000C                           _endpoint_number 0057  
                    ?_USBCtrlTrfRxService 0001                 __size_of_MPU6050_ReadAccX 00A0  
               __size_of_MPU6050_ReadAccY 00A0                        __CFG_FOSC$HSPLL_HS 000000  
                    ?i2_SYSTEM_Initialize 0001                  ?_USBCtrlEPAllowDataStage 0001  
                    ?_USBCtrlTrfTxService 0001              _USBStatusStageTimeoutCounter 0054  
                    ??_USBWakeFromSuspend 0017                USBTransferOnePacket@handle 0006  
                   ?_APP_DeviceMouseTasks 0001                                _USB_CD_Ptr 7EF7  
